******************************************************************************
               TMS320C6x Linker Unix v7.4.4                    
******************************************************************************
>> Linked Wed Oct 25 16:31:43 2017

OUTPUT FILE NAME:   <bin/debug/server_dsp.xe674>
ENTRY POINT SYMBOL: "ti_sysbios_family_c64p_Hwi0"  address: c3788000


MEMORY CONFIGURATION

         name            origin    length      used     unused   attr    fill
----------------------  --------  ---------  --------  --------  ----  --------
  IROM                  11700000   00100000  00000000  00100000  R  X
  IRAM                  11800000   00038000  00000000  00038000  RW X
  L3_CBA_RAM            80000000   00020000  00000000  00020000  RW X
  SR_0                  c2000000   00010000  00010000  00000000  RW X
  SR_1                  c2010000   00a00000  00a00000  00000000  RW X
  DSP_PROG              c3000000   00a00000  007883dc  00277c24  RW X


SEGMENT ALLOCATION MAP

run origin  load origin   length   init length attrs members
----------  ----------- ---------- ----------- ----- -------
c3000000    c3000000    00721830   00000000    rw-
  c3000000    c3000000    00721830   00000000    rw- .far
c3721830    c3721830    00000010   00000010    rw-
  c3721830    c3721830    00000010   00000010    rw- .fardata.1
c3721840    c3721840    00030560   00030560    r-x
  c3721840    c3721840    00030560   00030560    r-x .text
c3751da0    c3751da0    00030814   00030814    rw-
  c3751da0    c3751da0    00030814   00030814    rw- .fardata.2
c37825b8    c37825b8    00004964   00004964    r--
  c37825b8    c37825b8    00004964   00004964    r-- .const
c3786f20    c3786f20    00001000   00000000    rw-
  c3786f20    c3786f20    00001000   00000000    rw- .stack
c3787f20    c3787f20    00000084   00000084    r--
  c3787f20    c3787f20    00000084   00000084    r-- .switch
c3787fa4    c3787fa4    00000008   00000000    rw-
  c3787fa4    c3787fa4    00000008   00000000    rw- .bss
c3787fac    c3787fac    00000028   00000028    rw-
  c3787fac    c3787fac    00000028   00000028    rw- .neardata
c3788000    c3788000    00000200   00000200    r-x
  c3788000    c3788000    00000200   00000200    r-x .vecs
c3788200    c3788200    00000120   00000000    rw-
  c3788200    c3788200    00000120   00000000    rw- .cio
c3788320    c3788320    00000064   00000064    rw-
  c3788320    c3788320    00000064   00000064    rw- .args
c3788400    c3788400    0000008c   0000008c    r--
  c3788400    c3788400    0000008c   0000008c    r-- ti_sdo_ipc_init


SECTION ALLOCATION MAP

 output                                  attributes/
section   page    origin      length       input sections
--------  ----  ----------  ----------   ----------------
.cinit     0    c3000000    00000000     UNINITIALIZED

.init_array 
*          0    c3000000    00000000     UNINITIALIZED

ti.sdo.ipc.SharedRegion_0 
*          0    c2000000    00010000     NOLOAD SECTION
                  c2000000    00010000     --HOLE--

ti.sdo.ipc.SharedRegion_1 
*          0    c2010000    00a00000     NOLOAD SECTION
                  c2010000    00a00000     --HOLE--

xdc.meta   0    c3000000    000000e0     COPY SECTION
                  c3000000    000000e0     dsp_pe674.oe674 (xdc.meta)

.far       0    c3000000    00721830     UNINITIALIZED
                  c3000000    00721010     dsp_pe674.oe674 (.far)
                  c3721010    00000800     dsp_pe674.oe674 (.far:taskStackSection)
                  c3721810    0000000c     ti.syslink.ipc.rtos.ae674 : FrameQ.oe674 (.far)
                  c372181c    00000004                               : RingIOShm.oe674 (.far)
                  c3721820    00000008     rts6740_elf.lib : trgdrv.obj (.far)
                  c3721828    00000008     ti.syslink.ipc.rtos.ae674 : RingIO.oe674 (.far)

.fardata.1 
*          0    c3721830    00000010     
                  c3721830    00000010     dsp_pe674.oe674 (.fardata:ti_sdo_ipc_MessageQ_Module_State_0_transports__A)

.text      0    c3721840    00030560     
                  c3721840    000021e0     ti.syslink.ipc.rtos.ae674 : FrameQBufMgr_ShMem.oe674 (.text:FrameQBufMgr_ShMem_create)
                  c3723a20    00001060                               : FrameQ_ShMem.oe674 (.text:FrameQ_ShMem_create)
                  c3724a80    00000fa0                               : ClientNotifyMgr.oe674 (.text:_ClientNotifyMgr_create)
                  c3725a20    00000d20                               : FrameQ_ShMem.oe674 (.text:_FrameQ_ShMem_open)
                  c3726740    00000c40     utils.lib : uartStdio.obj (.text)
                  c3727380    00000b40     ipc.ae674 : Ipc.obj (.text:ti_sdo_ipc_GateMP_Instance_init__F)
                  c3727ec0    00000a60     ti.syslink.ipc.rtos.ae674 : FrameQ_ShMem.oe674 (.text:FrameQ_ShMem_delete)
                  c3728920    00000900                               : FrameQBufMgr_ShMem.oe674 (.text:FrameQBufMgr_ShMem_delete)
                  c3729220    00000900                               : FrameQ_ShMem.oe674 (.text:FrameQ_ShMem_putv)
                  c3729b20    000008a0                               : ClientNotifyMgr.oe674 (.text:ClientNotifyMgr_delete)
                  c372a3c0    000008a0     sysbios.ae674 : BIOS.obj (.text:ti_sysbios_family_c64p_Exception_handler__I)
                  c372ac60    000008a0     ti.targets.rts6000.ae674 : System.oe674 (.text:xdc_runtime_System_doPrint__I)
                  c372b500    00000800     ti.syslink.ipc.rtos.ae674 : FrameQ_ShMem.oe674 (.text:FrameQ_ShMem_put)
                  c372bd00    000007e0                               : ClientNotifyMgr.oe674 (.text:ClientNotifyMgr_setup)
                  c372c4e0    000007c0     ipc.ae674 : Ipc.obj (.text:Ipc_attach)
                  c372cca0    00000700               : Ipc.obj (.text:Ipc_detach)
                  c372d3a0    00000700               : Ipc.obj (.text:ti_sdo_ipc_transports_TransportShm_Instance_init__F)
                  c372daa0    000006e0     ti.syslink.ipc.rtos.ae674 : FrameQBufMgr_ShMem.oe674 (.text:FrameQBufMgr_ShMem_dupv)
                  c372e180    000006a0                               : FrameQ_ShMem.oe674 (.text:FrameQ_ShMem_getv)
                  c372e820    00000640                               : FrameQBufMgr_ShMem.oe674 (.text:FrameQBufMgr_ShMem_dup)
                  c372ee60    000005e0                               : ClientNotifyMgr.oe674 (.text:ClientNotifyMgr_sendNotificationMulti)
                  c372f440    000005e0                               : FrameQBufMgr_ShMem.oe674 (.text:FrameQBufMgr_ShMem_allocv)
                  c372fa20    000005a0                               : ClientNotifyMgr.oe674 (.text:ClientNotifyMgr_threadFxn)
                  c372ffc0    00000500     syslink_service.oe674 (.text)
                  c37304c0    000004e0     ipc.ae674 : Ipc.obj (.text:ti_sdo_ipc_heaps_HeapMemMP_Instance_init__F)
                  c37309a0    000004c0     ti.syslink.ipc.rtos.ae674 : ClientNotifyMgr.oe674 (.text:ClientNotifyMgr_execCallBackFxn)
                  c3730e60    000004c0     resource_sync.oe674 (.text)
                  c3731320    000004c0     syslink.oe674 (.text)
                  c37317e0    000004c0     ipc.ae674 : Ipc.obj (.text:ti_sdo_ipc_ListMP_Instance_init__F)
                  c3731ca0    000004a0     ti.syslink.ipc.rtos.ae674 : ClientNotifyMgr.oe674 (.text:ClientNotifyMgr_sendNotification)
                  c3732140    00000460                               : ClientNotifyMgr.oe674 (.text:ClientNotifyMgr_sendForceNotificationMulti)
                  c37325a0    00000460     ipc.ae674 : Ipc.obj (.text:ti_sdo_ipc_GateMP_setRegion0Reserved__F)
                  c3732a00    00000460               : Ipc.obj (.text:ti_sdo_ipc_nsremote_NameServerRemoteNotify_get__F)
                  c3732e60    00000420     ti.syslink.ipc.rtos.ae674 : FrameQBufMgr_ShMem.oe674 (.text:FrameQBufMgr_ShMem_sharedMemReq)
                  c3733280    00000420                               : FrameQ_ShMem.oe674 (.text:FrameQ_ShMem_flushAll)
                  c37336a0    00000420                               : FrameQ_ShMem.oe674 (.text:_FrameQ_ShMem_setOpenFlags)
                  c3733ac0    00000420     ipc.ae674 : Ipc.obj (.text:ti_sdo_ipc_GateMP_Instance_finalize__F)
                  c3733ee0    000003e0     ti.syslink.ipc.rtos.ae674 : FrameQBufMgr_ShMem.oe674 (.text:FrameQBufMgr_ShMem_freev)
                  c37342c0    000003c0     ipc.ae674 : Ipc.obj (.text:ti_sdo_ipc_heaps_HeapMemMP_alloc__E)
                  c3734680    000003c0               : Ipc.obj (.text:ti_sdo_ipc_heaps_HeapMemMP_free__E)
                  c3734a40    000003a0     ti.syslink.ipc.rtos.ae674 : ClientNotifyMgr.oe674 (.text:ClientNotifyMgr_registerClient)
                  c3734de0    000003a0                               : ClientNotifyMgr.oe674 (.text:ClientNotifyMgr_unregisterClient)
                  c3735180    000003a0                               : FrameQ_ShMem.oe674 (.text:FrameQ_ShMem_getvNumFrames)
                  c3735520    000003a0     ipc.ae674 : Ipc.obj (.text:NameServer_add)
                  c37358c0    00000360     ti.syslink.ipc.rtos.ae674 : FrameQBufMgr_ShMem.oe674 (.text:FrameQBufMgr_ShMem_free)
                  c3735c20    00000340                               : FrameQBufMgr.oe674 (.text:FrameQBufMgr_open)
                  c3735f60    00000340                               : FrameQ_ShMem.oe674 (.text:FrameQ_ShMem_get)
                  c37362a0    00000340     drivers.lib : uart.obj (.text)
                  c37365e0    00000320     ti.syslink.ipc.rtos.ae674 : FrameQBufMgr.oe674 (.text:FrameQBufMgr_create)
                  c3736900    00000300                               : FrameQBufMgr_ShMem.oe674 (.text:FrameQBufMgr_ShMem_alloc)
                  c3736c00    00000300     ipc.ae674 : Ipc.obj (.text:Ipc_writeConfig)
                  c3736f00    00000300     sysbios.ae674 : BIOS.obj (.text:ti_sysbios_knl_Semaphore_pend__E)
                  c3737200    00000300                   : BIOS.obj (.text:ti_sysbios_knl_Task_Instance_finalize__F)
                  c3737500    000002e0     ipc.ae674 : Ipc.obj (.text:ListMP_getHead)
                  c37377e0    000002e0               : Ipc.obj (.text:ti_sdo_ipc_Ipc_procSyncStart__I)
                  c3737ac0    000002e0               : Ipc.obj (.text:ti_sdo_ipc_nsremote_NameServerRemoteNotify_Instance_init__F)
                  c3737da0    000002c0     ti.syslink.ipc.rtos.ae674 : FrameQ_ShMem.oe674 (.text:FrameQ_ShMem_registerNotifier)
                  c3738060    000002c0     ipc.ae674 : Ipc.obj (.text:NameServer_get)
                  c3738320    000002c0     drivers.lib : gpio.obj (.text)
                  c37385e0    000002c0     sysbios.ae674 : BIOS.obj (.text:ti_sysbios_timers_timer64_Timer_Module_startup__F)
                  c37388a0    000002a0     ipc.ae674 : Ipc.obj (.text:ti_sdo_ipc_transports_TransportShm_Instance_finalize__F)
                  c3738b40    000002a0     sysbios.ae674 : BIOS.obj (.text:ti_sysbios_timers_timer64_Timer_deviceConfig__I)
                  c3738de0    00000280     ipc.ae674 : Ipc.obj (.text:ListMP_putHead)
                  c3739060    00000280               : Ipc.obj (.text:ListMP_putTail)
                  c37392e0    00000280               : Ipc.obj (.text:ListMP_remove)
                  c3739560    00000280               : Ipc.obj (.text:ti_sdo_ipc_gates_GatePeterson_Instance_init__F)
                  c37397e0    00000280     ti.targets.rts6000.ae674 : Error.oe674 (.text:xdc_runtime_Error_raiseX__F)
                  c3739a60    00000260     ti.syslink.ipc.rtos.ae674 : FrameQBufMgr_ShMem.oe674 (.text:FrameQBufMgr_ShMem_Params_init)
                  c3739cc0    00000260     ipc.ae674 : Ipc.obj (.text:GateMP_openByAddr)
                  c3739f20    00000260               : Ipc.obj (.text:Ipc_start)
                  c373a180    00000260     rts6740_elf.lib : imath64.obj (.text:__c6xabi_divull)
                  c373a3e0    00000260     sysbios.ae674 : BIOS.obj (.text:ti_sysbios_family_c64p_Exception_internalHandler__I)
                  c373a640    00000260                   : BIOS.obj (.text:ti_sysbios_timers_timer64_Timer_setPeriodMicroSecs__E)
                  c373a8a0    00000260     ti.targets.rts6000.ae674 : Startup.oe674 (.text:xdc_runtime_Startup_startMods__I)
                  c373ab00    00000260     dsp_pe674.oe674 (.text:xdc_runtime_System_printfExtend__I)
                  c373ad60    00000240     ti.syslink.ipc.rtos.ae674 : FrameQ_ShMem.oe674 (.text:FrameQ_ShMem_unregisterNotifier)
                  c373afa0    00000240                               : FrameQ.oe674 (.text:FrameQ_setup)
                  c373b1e0    00000240     ipc.ae674 : Ipc.obj (.text:Notify_unregisterEvent)
                  c373b420    00000240               : Ipc.obj (.text:ti_sdo_ipc_family_da830_NotifySetup_attach__E)
                  c373b660    00000240               : Ipc.obj (.text:ti_sdo_ipc_heaps_HeapMemMP_getStats__E)
                  c373b8a0    00000240     ti.targets.rts6000.ae674 : LoggerBuf.oe674 (.text:xdc_runtime_LoggerBuf_write8__F)
                  c373bae0    00000220     ti.syslink.ipc.rtos.ae674 : ClientNotifyMgr.oe674 (.text:ClientNotifyMgr_destroy)
                  c373bd00    00000220                               : FrameQ_ShMem.oe674 (.text:FrameQ_ShMem_sharedMemReq)
                  c373bf20    00000220                               : SyslinkMemMgr.oe674 (.text:SyslinkMemMgr_create)
                  c373c140    00000220     ipc.ae674 : Ipc.obj (.text:ti_sdo_ipc_nsremote_NameServerRemoteNotify_swiFxn__I)
                  c373c360    00000220     sysbios.ae674 : BIOS.obj (.text:ti_sysbios_family_c64p_Hwi_reconfig__E)
                  c373c580    00000220                   : BIOS.obj (.text:ti_sysbios_gates_GateMutexPri_enter__E)
                  c373c7a0    00000220     ti.targets.rts6000.ae674 : Core-mem.oe674 (.text:xdc_runtime_Core_createObject__I)
                  c373c9c0    00000200     sysbios.ae674 : c64p_Hwi_disp_always.obj (.text:_ti_sysbios_family_c64p_Hwi_dispatchAlways)
                  c373cbc0    00000200     ipc.ae674 : Ipc.obj (.text:ti_sdo_ipc_Ipc_procSyncFinish__I)
                  c373cdc0    00000200               : Ipc.obj (.text:ti_sdo_ipc_notifyDrivers_NotifyDriverShm_Instance_init__F)
                  c373cfc0    00000200               : Ipc.obj (.text:ti_sdo_ipc_notifyDrivers_NotifyDriverShm_sendEvent__E)
                  c373d1c0    000001e0     ti.syslink.ipc.rtos.ae674 : FrameQBufMgr.oe674 (.text:FrameQBufMgr_setup)
                  c373d3a0    000001e0                               : FrameQ_ShMem.oe674 (.text:FrameQ_ShMem_getNumFrames)
                  c373d580    000001e0     ipc.ae674 : Ipc.obj (.text:GateMP_sharedMemReq)
                  c373d760    000001e0               : Ipc.obj (.text:ListMP_openByAddr)
                  c373d940    000001e0     Platform.lib : GPIO.obj (.text)
                  c373db20    000001e0     server.oe674 (.text)
                  c373dd00    000001e0     ipc.ae674 : Ipc.obj (.text:ti_sdo_utils_NameServer_Instance_finalize__F)
                  c373dee0    000001e0     sysbios.ae674 : BIOS.obj (.text:ti_sysbios_family_c64p_Exception_externalHandler__I)
                  c373e0c0    000001e0                   : BIOS.obj (.text:ti_sysbios_knl_Task_Instance_init__F)
                  c373e2a0    000001e0                   : BIOS.obj (.text:ti_sysbios_knl_Task_checkStacks__E)
                  c373e480    000001c0     ipc.ae674 : Ipc.obj (.text:ti_sdo_ipc_GateMP_getFreeResource__I)
                  c373e640    000001c0               : Ipc.obj (.text:ti_sdo_ipc_heaps_HeapMemMP_postInit__I)
                  c373e800    000001c0     sysbios.ae674 : BIOS.obj (.text:ti_sysbios_family_c64p_Cache_block__I)
                  c373e9c0    000001c0                   : BIOS.obj (.text:ti_sysbios_family_c64p_Exception_decodeMpfsr__I)
                  c373eb80    000001c0                   : BIOS.obj (.text:ti_sysbios_knl_Task_exit__E)
                  c373ed40    000001c0                   : BIOS.obj (.text:ti_sysbios_knl_Task_postInit__I)
                  c373ef00    000001c0     ti.targets.rts6000.ae674 : Text.oe674 (.text:xdc_runtime_Text_putSite__F)
                  c373f0c0    000001a0     ti.syslink.ipc.rtos.ae674 : FrameQBufMgr_ShMem.oe674 (.text:FrameQBufMgr_ShMem_setup)
                  c373f260    000001a0                               : FrameQBufMgr.oe674 (.text:FrameQBufMgr_delete)
                  c373f400    000001a0     ipc.ae674 : Ipc.obj (.text:ti_sdo_ipc_notifyDrivers_NotifyDriverShm_registerEvent__E)
                  c373f5a0    000001a0               : Ipc.obj (.text:ti_sdo_ipc_notifyDrivers_NotifyDriverShm_unregisterEvent__E)
                  c373f740    000001a0               : Ipc.obj (.text:ti_sdo_utils_NameServer_Instance_init__F)
                  c373f8e0    000001a0     sysbios.ae674 : BIOS.obj (.text:ti_sysbios_timers_timer64_Timer_start__E)
                  c373fa80    000001a0     ti.targets.rts6000.ae674 : LoggerBuf.oe674 (.text:xdc_runtime_LoggerBuf_write4__F)
                  c373fc20    00000180     ipc.ae674 : Ipc.obj (.text:NameServer_getHandle)
                  c373fda0    00000180     Platform.lib : UART.obj (.text)
                  c373ff20    00000180     ti.syslink.ipc.rtos.ae674 : RingIO.oe674 (.text:RingIO_setup)
                  c37400a0    00000180     drivers.lib : psc.obj (.text)
                  c3740220    00000180     sysbios.ae674 : c64p_Exception_asm.obj (.text)
                  c37403a0    00000180     ipc.ae674 : Ipc.obj (.text:ti_sdo_ipc_gates_GatePeterson_enter__E)
                  c3740520    00000180               : Ipc.obj (.text:ti_sdo_ipc_notifyDrivers_NotifyDriverShm_isr__I)
                  c37406a0    00000180     sysbios.ae674 : BIOS.obj (.text:ti_sysbios_heaps_HeapMem_alloc__E)
                  c3740820    00000180                   : BIOS.obj (.text:ti_sysbios_knl_Swi_schedule__I)
                  c37409a0    00000180                   : BIOS.obj (.text:ti_sysbios_knl_Task_setPri__E)
                  c3740b20    00000160     ti.syslink.ipc.rtos.ae674 : ClientNotifyMgr.oe674 (.text:ClientNotifyMgr_waitOnMultiSubEntryNotify)
                  c3740c80    00000160                               : FrameQBufMgr_ShMem.oe674 (.text:FrameQBufMgr_ShMem_invalidate)
                  c3740de0    00000160                               : FrameQBufMgr_ShMem.oe674 (.text:FrameQBufMgr_ShMem_writeBack)
                  c3740f40    00000160                               : FrameQ_ShMem.oe674 (.text:FrameQ_ShMem_setup)
                  c37410a0    00000160                               : FrameQ.oe674 (.text:FrameQ_destroy)
                  c3741200    00000160                               : _Syslink.oe674 (.text:SysLink_setup)
                  c3741360    00000160     ipc.ae674 : Ipc.obj (.text:ti_sdo_ipc_GateMP_openRegion0Reserved__F)
                  c37414c0    00000160               : Ipc.obj (.text:ti_sdo_ipc_ListMP_Instance_finalize__F)
                  c3741620    00000160               : Ipc.obj (.text:ti_sdo_ipc_Notify_Instance_init__F)
                  c3741780    00000160               : Ipc.obj (.text:ti_sdo_ipc_heaps_HeapMemMP_Instance_finalize__F)
                  c37418e0    00000160               : Ipc.obj (.text:ti_sdo_utils_NameServer_removeLocal__I)
                  c3741a40    00000160     sysbios.ae674 : BIOS.obj (.text:ti_sysbios_knl_Task_schedule__I)
                  c3741ba0    00000160                   : BIOS.obj (.text:ti_sysbios_knl_Task_startCore__E)
                  c3741d00    00000140     ipc.ae674 : Ipc.obj (.text:HeapMemMP_openByAddr)
                  c3741e40    00000140               : Ipc.obj (.text:MessageQ_put)
                  c3741f80    00000140               : Ipc.obj (.text:Notify_registerEvent)
                  c37420c0    00000140     boot.ae674 : autoinit.oe674 (.text:_auto_init_elf)
                  c3742200    00000140     ipc.ae674 : Ipc.obj (.text:ti_sdo_ipc_SharedRegion_start__F)
                  c3742340    00000140               : Ipc.obj (.text:ti_sdo_ipc_notifyDrivers_NotifyDriverShm_disableEvent__E)
                  c3742480    00000140               : Ipc.obj (.text:ti_sdo_ipc_transports_TransportShm_openByAddr__F)
                  c37425c0    00000140               : Ipc.obj (.text:ti_sdo_ipc_transports_TransportShm_put__E)
                  c3742700    00000140     sysbios.ae674 : BIOS.obj (.text:ti_sysbios_heaps_HeapMem_free__E)
                  c3742840    00000140                   : BIOS.obj (.text:ti_sysbios_knl_Task_Module_startup__F)
                  c3742980    00000140                   : BIOS.obj (.text:ti_sysbios_knl_Task_sleep__E)
                  c3742ac0    00000140     ti.targets.rts6000.ae674 : Text.oe674 (.text:xdc_runtime_Text_putLab__F)
                  c3742c00    00000120     ti.syslink.ipc.rtos.ae674 : FrameQBufMgr_ShMem.oe674 (.text:FrameQBufMgr_ShMem_getvNumFreeFrames)
                  c3742d20    00000120                               : FrameQBufMgr_ShMem.oe674 (.text:FrameQBufMgr_ShMem_open)
                  c3742e40    00000120     ipc.ae674 : Ipc.obj (.text:HeapMemMP_sharedMemReq)
                  c3742f60    00000120               : Ipc.obj (.text:ti_sdo_ipc_MessageQ_Module_startup__F)
                  c3743080    00000120               : Ipc.obj (.text:ti_sdo_ipc_transports_TransportShm_sharedMemReq__F)
                  c37431a0    00000120     sysbios.ae674 : BIOS.obj (.text:ti_sysbios_family_c64p_Exception_Module_startup__F)
                  c37432c0    00000120                   : BIOS.obj (.text:ti_sysbios_knl_Clock_workFunc__E)
                  c37433e0    00000120     ti.targets.rts6000.ae674 : LoggerBuf.oe674 (.text:xdc_runtime_LoggerBuf_setFilterLevel__F)
                  c3743500    00000120                              : Text.oe674 (.text:xdc_runtime_Text_putMod__F)
                  c3743620    00000100     ti.syslink.ipc.rtos.ae674 : ClientNotifyMgr.oe674 (.text:ClientNotifyMgr_swiFxn)
                  c3743720    00000100                               : FrameQBufMgr_ShMem.oe674 (.text:FrameQBufMgr_Shmem_updateCacheFlags)
                  c3743820    00000100                               : FrameQBufMgr.oe674 (.text:FrameQBufMgr_destroy)
                  c3743920    00000100     ipc.ae674 : Ipc.obj (.text:ListMP_sharedMemReq)
                  c3743a20    00000100               : Ipc.obj (.text:Notify_registerEventSingle)
                  c3743b20    00000100               : Ipc.obj (.text:Notify_sendEvent)
                  c3743c20    00000100               : Ipc.obj (.text:Notify_unregisterEventSingle)
                  c3743d20    00000100     ti.syslink.ipc.rtos.ae674 : FrameQ_ShMem.oe674 (.text:_FrameQ_ShMem_resetNotifyId)
                  c3743e20    00000100                               : FrameQ_ShMem.oe674 (.text:_FrameQ_ShMem_setNotifyId)
                  c3743f20    00000100     ipc.ae674 : Ipc.obj (.text:ti_sdo_ipc_GateMP_start__F)
                  c3744020    00000100               : Ipc.obj (.text:ti_sdo_ipc_Notify_Instance_finalize__F)
                  c3744120    00000100     dsp_pe674.oe674 (.text:ti_sdo_ipc_Notify_Object__create__S)
                  c3744220    00000100     ipc.ae674 : Ipc.obj (.text:ti_sdo_ipc_SharedRegion_attach__F)
                  c3744320    00000100               : Ipc.obj (.text:ti_sdo_ipc_SharedRegion_clearReservedMemory__F)
                  c3744420    00000100     dsp_pe674.oe674 (.text:ti_sdo_ipc_gates_GatePeterson_Object__create__S)
                  c3744520    00000100     ipc.ae674 : Ipc.obj (.text:ti_sdo_ipc_nsremote_NameServerRemoteNotify_Instance_finalize__F)
                  c3744620    00000100     dsp_pe674.oe674 (.text:ti_sdo_ipc_nsremote_NameServerRemoteNotify_Object__create__S)
                  c3744720    00000100     ipc.ae674 : Ipc.obj (.text:ti_sdo_ipc_transports_TransportShmSetup_attach__E)
                  c3744820    00000100     dsp_pe674.oe674 (.text:ti_sdo_ipc_transports_TransportShm_Object__create__S)
                  c3744920    00000100     dsp_pe674.oe674 (.text:ti_sdo_utils_NameServer_Object__create__S)
                  c3744a20    00000100     ipc.ae674 : Ipc.obj (.text:ti_sdo_utils_NameServer_findLocal__I)
                  c3744b20    00000100     sysbios.ae674 : BIOS.obj (.text:ti_sysbios_family_c64p_Hwi_Module_startup__F)
                  c3744c20    00000100     dsp_pe674.oe674 (.text:ti_sysbios_family_c64p_Hwi_Object__create__S)
                  c3744d20    00000100     sysbios.ae674 : BIOS.obj (.text:ti_sysbios_family_c64p_Hwi_dispatchC__I)
                  c3744e20    00000100                   : BIOS.obj (.text:ti_sysbios_gates_GateMutexPri_leave__E)
                  c3744f20    00000100                   : BIOS.obj (.text:ti_sysbios_knl_Clock_startI__E)
                  c3745020    00000100                   : BIOS.obj (.text:ti_sysbios_knl_Semaphore_post__E)
                  c3745120    00000100     dsp_pe674.oe674 (.text:ti_sysbios_knl_Swi_Object__create__S)
                  c3745220    00000100     sysbios.ae674 : BIOS.obj (.text:ti_sysbios_knl_Swi_restoreHwi__E)
                  c3745320    00000100     dsp_pe674.oe674 (.text:ti_sysbios_knl_Task_Object__create__S)
                  c3745420    00000100     sysbios.ae674 : BIOS.obj (.text:ti_sysbios_timers_timer64_Timer_initDevice__I)
                  c3745520    00000100     ti.targets.rts6000.ae674 : Core-mem.oe674 (.text:xdc_runtime_Core_deleteObject__I)
                  c3745620    00000100                              : LoggerBuf.oe674 (.text:xdc_runtime_LoggerBuf_getFilterLevel__F)
                  c3745720    00000100                              : Startup.oe674 (.text:xdc_runtime_Startup_exec__F)
                  c3745820    00000100                              : Text.oe674 (.text:xdc_runtime_Text_visitRope2__I)
                  c3745920    000000e0     ti.syslink.ipc.rtos.ae674 : ClientNotifyMgr.oe674 (.text:ClientNotifyMgr_cbFxn)
                  c3745a00    000000e0                               : ClientNotifyMgr.oe674 (.text:ClientNotifyMgr_enableNotification)
                  c3745ae0    000000e0                               : ClientNotifyMgr.oe674 (.text:ClientNotifyMgr_thFxn)
                  c3745bc0    000000e0                               : FrameQBufMgr.oe674 (.text:FrameQBufMgr_getHandle)
                  c3745ca0    000000e0                               : FrameQBufMgr.oe674 (.text:FrameQBufMgr_getInstNo)
                  c3745d80    000000e0                               : FrameQ_ShMem.oe674 (.text:FrameQ_ShMem_open)
                  c3745e60    000000e0     ipc.ae674 : Ipc.obj (.text:NameServer_getLocal)
                  c3745f40    000000e0     Platform.lib : UARTConsole.obj (.text)
                  c3746020    000000e0     ti.syslink.ipc.rtos.ae674 : RingIOShm.oe674 (.text:RingIOShm_setup)
                  c3746100    000000e0                               : RingIO.oe674 (.text:RingIO_destroy)
                  c37461e0    000000e0                               : SharedMemoryMgr.oe674 (.text:SyslinkMemMgr_SharedMemory_translate)
                  c37462c0    000000e0     rts6740_elf.lib : memset.obj (.text:memset)
                  c37463a0    000000e0     dsp_pe674.oe674 (.text:ti_sdo_ipc_GateMP_Object__create__S)
                  c3746480    000000e0     ipc.ae674 : Ipc.obj (.text:ti_sdo_ipc_Ipc_getMasterAddr__I)
                  c3746560    000000e0               : Ipc.obj (.text:ti_sdo_ipc_Ipc_getSlaveAddr__I)
                  c3746640    000000e0     dsp_pe674.oe674 (.text:ti_sdo_ipc_ListMP_Object__create__S)
                  c3746720    000000e0     ipc.ae674 : Ipc.obj (.text:ti_sdo_ipc_Notify_detach__F)
                  c3746800    000000e0               : Ipc.obj (.text:ti_sdo_ipc_SharedRegion_reserveMemory__F)
                  c37468e0    000000e0               : Ipc.obj (.text:ti_sdo_ipc_SharedRegion_stop__F)
                  c37469c0    000000e0               : Ipc.obj (.text:ti_sdo_ipc_gates_GatePeterson_sharedMemReq__E)
                  c3746aa0    000000e0     dsp_pe674.oe674 (.text:ti_sdo_ipc_heaps_HeapMemMP_Object__create__S)
                  c3746b80    000000e0     dsp_pe674.oe674 (.text:ti_sdo_ipc_notifyDrivers_NotifyDriverShm_Object__create__S)
                  c3746c60    000000e0     ipc.ae674 : Ipc.obj (.text:ti_sdo_utils_NameServer_Module_startup__F)
                  c3746d40    000000e0     sysbios.ae674 : BIOS.obj (.text:ti_sysbios_family_c64p_Cache_Module_startup__F)
                  c3746e20    000000e0                   : BIOS.obj (.text:ti_sysbios_family_c64p_Hwi_Instance_finalize__F)
                  c3746f00    000000e0                   : BIOS.obj (.text:ti_sysbios_family_c64p_Hwi_Instance_init__F)
                  c3746fe0    000000e0                   : BIOS.obj (.text:ti_sysbios_knl_Task_unblockI__E)
                  c37470c0    000000e0     ti.targets.rts6000.ae674 : Error.oe674 (.text:xdc_runtime_Error_print__F)
                  c37471a0    000000e0     dsp_pe674.oe674 (.text:xdc_runtime_LoggerBuf_Object__create__S)
                  c3747280    000000e0     ti.targets.rts6000.ae674 : Memory.oe674 (.text:xdc_runtime_Memory_alloc__F)
                  c3747360    000000e0     dsp_pe674.oe674 (.text:xdc_runtime_knl_GateThread_Object__create__S)
                  c3747440    000000c0     ti.syslink.ipc.rtos.ae674 : ClientNotifyMgr.oe674 (.text:ClientNotifyMgr_sharedMemReq)
                  c3747500    000000c0                               : FrameQBufMgr_ShMem.oe674 (.text:FrameQBufMgr_ShMem_destroy)
                  c37475c0    000000c0                               : FrameQ_ShMem.oe674 (.text:FrameQ_Shmem_updateCacheFlags)
                  c3747680    000000c0     rts6740_elf.lib : trgdrv.obj (.text:HOSTwrite)
                  c3747740    000000c0     ipc.ae674 : Ipc.obj (.text:HeapMemMP_create)
                  c3747800    000000c0               : Ipc.obj (.text:Ipc_stop)
                  c37478c0    000000c0               : Ipc.obj (.text:ListMP_create)
                  c3747980    000000c0               : Ipc.obj (.text:MultiProc_getId)
                  c3747a40    000000c0               : Ipc.obj (.text:NameServer_create)
                  c3747b00    000000c0               : Ipc.obj (.text:SharedRegion_getId)
                  c3747bc0    000000c0     ti.syslink.ipc.rtos.ae674 : SyslinkMemMgr.oe674 (.text:SyslinkMemMgr_delete)
                  c3747c80    000000c0     rts6740_elf.lib : dtor_list.obj (.text:_Z11__TI_atexitPFYvPvES_S_)
                  c3747d40    000000c0                     : dtor_list.obj (.text:__cxa_finalize)
                  c3747e00    000000c0                     : divu.obj (.text:__divu)
                  c3747ec0    000000c0                     : exit.obj (.text:exit)
                  c3747f80    000000c0     ipc.ae674 : Ipc.obj (.text:ti_sdo_ipc_GateMP_attach__F)
                  c3748040    000000c0               : Ipc.obj (.text:ti_sdo_ipc_ListMP_elemClear__I)
                  c3748100    000000c0               : Ipc.obj (.text:ti_sdo_ipc_Notify_execMany__I)
                  c37481c0    000000c0               : Ipc.obj (.text:ti_sdo_ipc_SharedRegion_detach__F)
                  c3748280    000000c0               : Ipc.obj (.text:ti_sdo_ipc_family_da830_InterruptDsp_intRegister__E)
                  c3748340    000000c0               : Ipc.obj (.text:ti_sdo_ipc_gates_GatePeterson_postInit__I)
                  c3748400    000000c0               : Ipc.obj (.text:ti_sdo_ipc_nsremote_NameServerRemoteNotify_attach__E)
                  c37484c0    000000c0               : Ipc.obj (.text:ti_sdo_utils_NameServer_postInit__I)
                  c3748580    000000c0     sysbios.ae674 : BIOS.obj (.text:ti_sysbios_heaps_HeapMem_getStats__E)
                  c3748640    000000c0                   : BIOS.obj (.text:ti_sysbios_knl_Swi_Instance_init__F)
                  c3748700    000000c0                   : BIOS.obj (.text:ti_sysbios_knl_Swi_run__I)
                  c37487c0    000000c0                   : BIOS.obj (.text:ti_sysbios_knl_Task_allBlockedFunction__I)
                  c3748880    000000c0                   : BIOS.obj (.text:ti_sysbios_timers_timer64_Timer_startup__E)
                  c3748940    000000c0     ti.targets.rts6000.ae674 : LoggerBuf.oe674 (.text:xdc_runtime_LoggerBuf_Instance_init__F)
                  c3748a00    000000c0     dsp_pe674.oe674 (.text:xdc_runtime_Registry_findById__E)
                  c3748ac0    000000c0     ti.targets.rts6000.ae674 : System.oe674 (.text:xdc_runtime_System_formatNum__I)
                  c3748b80    000000a0     ti.syslink.ipc.rtos.ae674 : FrameQBufMgr_ShMem.oe674 (.text:FrameQBufMgr_ShMem_getNumFreeFrames)
                  c3748c20    000000a0                               : FrameQBufMgr_ShMem.oe674 (.text:FrameQBufMgr_ShMem_registerNotifier)
                  c3748cc0    000000a0                               : FrameQBufMgr_ShMem.oe674 (.text:FrameQBufMgr_ShMem_translateAddr)
                  c3748d60    000000a0     ipc.ae674 : Ipc.obj (.text:SharedRegion_getPtr)
                  c3748e00    000000a0               : Ipc.obj (.text:SharedRegion_getSRPtr)
                  c3748ea0    000000a0     rts6740_elf.lib : remu.obj (.text:__remu)
                  c3748f40    000000a0     boot.ae674 : boot.oe674 (.text:_c_int00)
                  c3748fe0    000000a0     sysbios.ae674 : c64p_Hwi_asm.obj (.text:_ti_sysbios_family_c64p_Hwi_plug__E)
                  c3749080    000000a0     rts6740_elf.lib : memcpy64.obj (.text:memcpy)
                  c3749120    000000a0     ipc.ae674 : Ipc.obj (.text:ti_sdo_ipc_GateMP_detach__F)
                  c37491c0    000000a0               : Ipc.obj (.text:ti_sdo_ipc_GateMP_getRegion0ReservedSize__F)
                  c3749260    000000a0               : Ipc.obj (.text:ti_sdo_ipc_GateMP_stop__F)
                  c3749300    000000a0               : Ipc.obj (.text:ti_sdo_ipc_gates_GatePeterson_leave__E)
                  c37493a0    000000a0               : Ipc.obj (.text:ti_sdo_ipc_notifyDrivers_NotifyDriverShm_Instance_finalize__F)
                  c3749440    000000a0               : Ipc.obj (.text:ti_sdo_ipc_transports_TransportShmSetup_detach__E)
                  c37494e0    000000a0     sysbios.ae674 : BIOS.obj (.text:ti_sysbios_family_c64p_Hwi_eventMap__E)
                  c3749580    000000a0                   : BIOS.obj (.text:ti_sysbios_family_c64p_Hwi_getStackInfo__E)
                  c3749620    000000a0                   : BIOS.obj (.text:ti_sysbios_gates_GateMutex_enter__E)
                  c37496c0    000000a0                   : BIOS.obj (.text:ti_sysbios_heaps_HeapMem_init__I)
                  c3749760    000000a0                   : BIOS.obj (.text:ti_sysbios_knl_Idle_run__E)
                  c3749800    000000a0                   : BIOS.obj (.text:ti_sysbios_knl_Semaphore_pendTimeout__I)
                  c37498a0    000000a0                   : BIOS.obj (.text:ti_sysbios_knl_Swi_restore__E)
                  c3749940    000000a0                   : BIOS.obj (.text:ti_sysbios_timers_timer64_Timer_stop__E)
                  c37499e0    000000a0     ti.targets.rts6000.ae674 : Assert.oe674 (.text:xdc_runtime_Assert_raise__I)
                  c3749a80    000000a0                              : LoggerBuf.oe674 (.text:xdc_runtime_LoggerBuf_Module_startup__F)
                  c3749b20    000000a0                              : SysMin.oe674 (.text:xdc_runtime_SysMin_abort__F)
                  c3749bc0    000000a0                              : SysMin.oe674 (.text:xdc_runtime_SysMin_flush__F)
                  c3749c60    000000a0                              : SysMin.oe674 (.text:xdc_runtime_SysMin_putch__F)
                  c3749d00    000000a0                              : Text.oe674 (.text:xdc_runtime_Text_xprintf__I)
                  c3749da0    00000080     ti.syslink.ipc.rtos.ae674 : FrameQBufMgr_ShMem.oe674 (.text:FrameQBufMgr_ShMem_invalidateHeaderBuf)
                  c3749e20    00000080                               : FrameQBufMgr.oe674 (.text:FrameQBufMgr_freeInstNo)
                  c3749ea0    00000080                               : FrameQ_ShMem.oe674 (.text:FrameQ_ShMem_destroy)
                  c3749f20    00000080     ipc.ae674 : Ipc.obj (.text:GateMP_close)
                  c3749fa0    00000080               : Ipc.obj (.text:GateMP_create)
                  c374a020    00000080               : Ipc.obj (.text:HeapMemMP_restore)
                  c374a0a0    00000080               : Ipc.obj (.text:SharedRegion_getEntry)
                  c374a120    00000080     ti.syslink.ipc.rtos.ae674 : SharedMemoryMgr.oe674 (.text:SyslinkMemMgr_SharedMemory_delete)
                  c374a1a0    00000080                               : TilerMemoryMgr.oe674 (.text:SyslinkMemMgr_TilerMemory_delete)
                  c374a220    00000080     rts6740_elf.lib : llshift.obj (.text:__c6xabi_llshl)
                  c374a2a0    00000080     sysbios.ae674 : c62_TaskSupport_asm.obj (.text:_ti_sysbios_family_c62_TaskSupport_swap__E)
                  c374a320    00000080     main_dsp.oe674 (.text)
                  c374a3a0    00000080     dsp_pe674.oe674 (.text:malloc)
                  c374a420    00000080     rts6740_elf.lib : trgmsg.obj (.text:readmsg)
                  c374a4a0    00000080                     : strncpy.obj (.text:strncpy)
                  c374a520    00000080     ipc.ae674 : Ipc.obj (.text:ti_sdo_ipc_Notify_Module_startup__F)
                  c374a5a0    00000080               : Ipc.obj (.text:ti_sdo_ipc_family_da830_NotifySetup_sharedMemReq__E)
                  c374a620    00000080     dsp_pe674.oe674 (.text:ti_sdo_ipc_gates_GateMPSupportNull_Object__create__S)
                  c374a6a0    00000080     ipc.ae674 : Ipc.obj (.text:ti_sdo_ipc_notifyDrivers_NotifyDriverShm_sharedMemReq__F)
                  c374a720    00000080               : Ipc.obj (.text:ti_sdo_ipc_nsremote_NameServerRemoteNotify_detach__E)
                  c374a7a0    00000080               : Ipc.obj (.text:ti_sdo_ipc_transports_TransportShm_swiFxn__I)
                  c374a820    00000080     dsp_pe674.oe674 (.text:ti_sdo_utils_List_Object__create__S)
                  c374a8a0    00000080     sysbios.ae674 : BIOS.obj (.text:ti_sysbios_BIOS_errorRaiseHook__I)
                  c374a920    00000080     dsp_pe674.oe674 (.text:ti_sysbios_BIOS_exitFunc__I)
                  c374a9a0    00000080     dsp_pe674.oe674 (.text:ti_sysbios_gates_GateAll_Object__create__S)
                  c374aa20    00000080     dsp_pe674.oe674 (.text:ti_sysbios_gates_GateHwi_Object__create__S)
                  c374aaa0    00000080     dsp_pe674.oe674 (.text:ti_sysbios_gates_GateMutexPri_Object__create__S)
                  c374ab20    00000080     dsp_pe674.oe674 (.text:ti_sysbios_gates_GateMutex_Object__create__S)
                  c374aba0    00000080     dsp_pe674.oe674 (.text:ti_sysbios_gates_GateSwi_Object__create__S)
                  c374ac20    00000080     sysbios.ae674 : BIOS.obj (.text:ti_sysbios_hal_Hwi_checkStack:ti_sysbios_hal_Hwi_checkStack)
                  c374aca0    00000080                   : BIOS.obj (.text:ti_sysbios_hal_Hwi_initStack:ti_sysbios_hal_Hwi_initStack)
                  c374ad20    00000080                   : BIOS.obj (.text:ti_sysbios_heaps_HeapMem_Instance_init__F)
                  c374ada0    00000080     dsp_pe674.oe674 (.text:ti_sysbios_heaps_HeapMem_Object__create__S)
                  c374ae20    00000080     sysbios.ae674 : BIOS.obj (.text:ti_sysbios_knl_Clock_Module_startup__F)
                  c374aea0    00000080     dsp_pe674.oe674 (.text:ti_sysbios_knl_Clock_doTick__I)
                  c374af20    00000080     sysbios.ae674 : BIOS.obj (.text:ti_sysbios_knl_Clock_getTicks__E)
                  c374afa0    00000080     dsp_pe674.oe674 (.text:ti_sysbios_knl_Queue_Object__create__S)
                  c374b020    00000080     dsp_pe674.oe674 (.text:ti_sysbios_knl_Semaphore_Object__create__S)
                  c374b0a0    00000080     sysbios.ae674 : BIOS.obj (.text:ti_sysbios_knl_Swi_post__E)
                  c374b120    00000080                   : BIOS.obj (.text:ti_sysbios_knl_Task_processVitalTaskFlag__I)
                  c374b1a0    00000080                   : BIOS.obj (.text:ti_sysbios_knl_Task_restoreHwi__E)
                  c374b220    00000080                   : BIOS.obj (.text:ti_sysbios_knl_Task_restore__E)
                  c374b2a0    00000080                   : BIOS.obj (.text:ti_sysbios_knl_Task_yield__E)
                  c374b320    00000080                   : BIOS.obj (.text:ti_sysbios_timers_timer64_Timer_getExpiredCounts__E)
                  c374b3a0    00000080                   : BIOS.obj (.text:ti_sysbios_timers_timer64_Timer_getPeriod__E)
                  c374b420    00000080     dsp_pe674.oe674 (.text:ti_sysbios_xdcruntime_GateThreadSupport_Object__create__S)
                  c374b4a0    00000080     ti.targets.rts6000.ae674 : Core-label.oe674 (.text:xdc_runtime_Core_assignLabel__I)
                  c374b520    00000080                              : Core-params.oe674 (.text:xdc_runtime_Core_assignParams__I)
                  c374b5a0    00000080                              : LoggerBuf.oe674 (.text:xdc_runtime_LoggerBuf_filterOutEvent__I)
                  c374b620    00000080                              : System.oe674 (.text:xdc_runtime_System_atexit__F)
                  c374b6a0    00000080                              : System.oe674 (.text:xdc_runtime_System_putchar__I)
                  c374b720    00000080                              : System.oe674 (.text:xdc_runtime_System_rtsExit__I)
                  c374b7a0    00000080                              : Text.oe674 (.text:xdc_runtime_Text_printVisFxn__I)
                  c374b820    00000060     ti.syslink.ipc.rtos.ae674 : ClientNotifyMgr.oe674 (.text:ClientNotifyMgr_Params_init)
                  c374b880    00000060                               : ClientNotifyMgr.oe674 (.text:ClientNotifyMgr_callBack)
                  c374b8e0    00000060                               : ClientNotifyMgr.oe674 (.text:ClientNotifyMgr_getConfig)
                  c374b940    00000060                               : ClientNotifyMgr.oe674 (.text:ClientNotifyMgr_setNameServer)
                  c374b9a0    00000060                               : FrameQBufMgr.oe674 (.text:FrameQBufMgr_Params_init)
                  c374ba00    00000060                               : FrameQBufMgr_ShMem.oe674 (.text:FrameQBufMgr_ShMem_getConfig)
                  c374ba60    00000060                               : FrameQBufMgr_ShMem.oe674 (.text:FrameQBufMgr_ShMem_invalidateFrameBuf)
                  c374bac0    00000060                               : FrameQBufMgr_ShMem.oe674 (.text:FrameQBufMgr_ShMem_unregisterNotifier)
                  c374bb20    00000060                               : FrameQBufMgr_ShMem.oe674 (.text:FrameQBufMgr_ShMem_writeBackFrameBuf)
                  c374bb80    00000060                               : FrameQBufMgr_ShMem.oe674 (.text:FrameQBufMgr_ShMem_writeBackHeaderBuf)
                  c374bbe0    00000060                               : FrameQBufMgr.oe674 (.text:FrameQBufMgr_getConfig)
                  c374bc40    00000060                               : FrameQ_ShMem.oe674 (.text:FrameQ_ShMem_alloc)
                  c374bca0    00000060                               : FrameQ_ShMem.oe674 (.text:FrameQ_ShMem_allocv)
                  c374bd00    00000060                               : FrameQ_ShMem.oe674 (.text:FrameQ_ShMem_freev)
                  c374bd60    00000060                               : FrameQ_ShMem.oe674 (.text:FrameQ_ShMem_getConfig)
                  c374bdc0    00000060     ipc.ae674 : Ipc.obj (.text:GateMP_Params_init)
                  c374be20    00000060               : Ipc.obj (.text:HeapMemMP_Params_init)
                  c374be80    00000060               : Ipc.obj (.text:Ipc_isAttached)
                  c374bee0    00000060               : Ipc.obj (.text:Notify_numIntLines)
                  c374bf40    00000060               : Ipc.obj (.text:Notify_sharedMemReq)
                  c374bfa0    00000060               : Ipc.obj (.text:SharedRegion_getCacheLineSize)
                  c374c000    00000060               : Ipc.obj (.text:SharedRegion_getHeap)
                  c374c060    00000060               : Ipc.obj (.text:SharedRegion_isCacheEnabled)
                  c374c0c0    00000060     ti.syslink.ipc.rtos.ae674 : SharedMemoryMgr.oe674 (.text:SyslinkMemMgr_SharedMemory_alloc)
                  c374c120    00000060                               : SharedMemoryMgr.oe674 (.text:SyslinkMemMgr_SharedMemory_create)
                  c374c180    00000060                               : SharedMemoryMgr.oe674 (.text:SyslinkMemMgr_SharedMemory_free)
                  c374c1e0    00000060                               : TilerMemoryMgr.oe674 (.text:SyslinkMemMgr_TilerMemory_create)
                  c374c240    00000060                               : SyslinkMemMgr.oe674 (.text:SyslinkMemMgr_alloc)
                  c374c2a0    00000060                               : SyslinkMemMgr.oe674 (.text:SyslinkMemMgr_free)
                  c374c300    00000060     rts6740_elf.lib : imath64.obj (.text:_subcull)
                  c374c360    00000060     dsp_pe674.oe674 (.text:calloc)
                  c374c3c0    00000060     dsp_pe674.oe674 (.text:ti_sdo_ipc_GateMP_Object__delete__S)
                  c374c420    00000060     ipc.ae674 : Ipc.obj (.text:ti_sdo_ipc_GateMP_createLocal__F)
                  c374c480    00000060               : Ipc.obj (.text:ti_sdo_ipc_Ipc_getRegion0ReservedSize__I)
                  c374c4e0    00000060     dsp_pe674.oe674 (.text:ti_sdo_ipc_ListMP_Object__delete__S)
                  c374c540    00000060     dsp_pe674.oe674 (.text:ti_sdo_ipc_Notify_Object__delete__S)
                  c374c5a0    00000060     ipc.ae674 : Ipc.obj (.text:ti_sdo_ipc_gates_GatePeterson_Instance_finalize__F)
                  c374c600    00000060     dsp_pe674.oe674 (.text:ti_sdo_ipc_gates_GatePeterson_Object__delete__S)
                  c374c660    00000060     dsp_pe674.oe674 (.text:ti_sdo_ipc_heaps_HeapMemMP_Object__delete__S)
                  c374c6c0    00000060     dsp_pe674.oe674 (.text:ti_sdo_ipc_notifyDrivers_NotifyDriverShm_Object__delete__S)
                  c374c720    00000060     ipc.ae674 : Ipc.obj (.text:ti_sdo_ipc_notifyDrivers_NotifyDriverShm_enableEvent__E)
                  c374c780    00000060               : Ipc.obj (.text:ti_sdo_ipc_notifyDrivers_NotifyDriverShm_setNotifyHandle__E)
                  c374c7e0    00000060     dsp_pe674.oe674 (.text:ti_sdo_ipc_nsremote_NameServerRemoteNotify_Object__delete__S)
                  c374c840    00000060     ipc.ae674 : Ipc.obj (.text:ti_sdo_ipc_transports_TransportShmSetup_sharedMemReq__E)
                  c374c8a0    00000060     dsp_pe674.oe674 (.text:ti_sdo_ipc_transports_TransportShm_Object__delete__S)
                  c374c900    00000060     dsp_pe674.oe674 (.text:ti_sdo_utils_NameServer_Object__delete__S)
                  c374c960    00000060     sysbios.ae674 : BIOS.obj (.text:ti_sysbios_BIOS_registerRTSLock__I)
                  c374c9c0    00000060                   : BIOS.obj (.text:ti_sysbios_BIOS_removeRTSLock__I)
                  c374ca20    00000060                   : BIOS.obj (.text:ti_sysbios_BIOS_rtsLock__I)
                  c374ca80    00000060                   : BIOS.obj (.text:ti_sysbios_family_c62_TaskSupport_start__E)
                  c374cae0    00000060                   : BIOS.obj (.text:ti_sysbios_family_c64p_Cache_all__I)
                  c374cb40    00000060                   : BIOS.obj (.text:ti_sysbios_family_c64p_Cache_marInit__I)
                  c374cba0    00000060                   : BIOS.obj (.text:ti_sysbios_family_c64p_Cache_setMar__E)
                  c374cc00    00000060                   : BIOS.obj (.text:ti_sysbios_family_c64p_Cache_setSize__E)
                  c374cc60    00000060                   : BIOS.obj (.text:ti_sysbios_family_c64p_Cache_wait__E)
                  c374ccc0    00000060     dsp_pe674.oe674 (.text:ti_sysbios_family_c64p_Hwi_Object__delete__S)
                  c374cd20    00000060     sysbios.ae674 : BIOS.obj (.text:ti_sysbios_gates_GateAll_enter__E)
                  c374cd80    00000060                   : BIOS.obj (.text:ti_sysbios_gates_GateAll_leave__E)
                  c374cde0    00000060     dsp_pe674.oe674 (.text:ti_sysbios_gates_GateMutexPri_Object__delete__S)
                  c374ce40    00000060     sysbios.ae674 : BIOS.obj (.text:ti_sysbios_gates_GateMutex_Instance_init__F)
                  c374cea0    00000060     dsp_pe674.oe674 (.text:ti_sysbios_gates_GateMutex_Object__delete__S)
                  c374cf00    00000060     sysbios.ae674 : BIOS.obj (.text:ti_sysbios_knl_Clock_setupTimerToSkipTicks__E)
                  c374cf60    00000060                   : BIOS.obj (.text:ti_sysbios_knl_Semaphore_Instance_init__F)
                  c374cfc0    00000060     dsp_pe674.oe674 (.text:ti_sysbios_knl_Semaphore_Object__delete__S)
                  c374d020    00000060     sysbios.ae674 : BIOS.obj (.text:ti_sysbios_knl_Swi_Module_startup__F)
                  c374d080    00000060     dsp_pe674.oe674 (.text:ti_sysbios_knl_Swi_Object__delete__S)
                  c374d0e0    00000060     dsp_pe674.oe674 (.text:ti_sysbios_knl_Task_Object__delete__S)
                  c374d140    00000060     sysbios.ae674 : BIOS.obj (.text:ti_sysbios_knl_Task_enter__I)
                  c374d1a0    00000060                   : BIOS.obj (.text:ti_sysbios_knl_Task_sleepTimeout__I)
                  c374d200    00000060     dsp_pe674.oe674 (.text:ti_sysbios_xdcruntime_GateThreadSupport_Object__delete__S)
                  c374d260    00000060     ti.syslink.ipc.rtos.ae674 : Syslink.oe674 (.text:ti_syslink_ipc_rtos_Syslink_attach)
                  c374d2c0    00000060     rts6740_elf.lib : trgmsg.obj (.text:writemsg)
                  c374d320    00000060     dsp_pe674.oe674 (.text:xdc_runtime_GateNull_Object__create__S)
                  c374d380    00000060     dsp_pe674.oe674 (.text:xdc_runtime_LoggerBuf_Object__delete__S)
                  c374d3e0    00000060     ti.targets.rts6000.ae674 : Memory.oe674 (.text:xdc_runtime_Memory_calloc__F)
                  c374d440    00000060                              : Memory.oe674 (.text:xdc_runtime_Memory_valloc__F)
                  c374d4a0    00000060                              : SysMin.oe674 (.text:xdc_runtime_SysMin_Module_startup__F)
                  c374d500    00000060                              : SysMin.oe674 (.text:xdc_runtime_SysMin_exit__F)
                  c374d560    00000060     dsp_pe674.oe674 (.text:xdc_runtime_SysMin_output__I)
                  c374d5c0    00000060     ti.targets.rts6000.ae674 : System.oe674 (.text:xdc_runtime_System_aprintf_va__F)
                  c374d620    00000060                              : System.oe674 (.text:xdc_runtime_System_printf_va__F)
                  c374d680    00000060                              : Text.oe674 (.text:xdc_runtime_Text_cordText__F)
                  c374d6e0    00000060     dsp_pe674.oe674 (.text:xdc_runtime_knl_GateThread_Object__delete__S)
                  c374d740    00000040     ti.syslink.ipc.rtos.ae674 : FrameQ_ShMem.oe674 (.text:FrameQ_ShMem_dup)
                  c374d780    00000040                               : FrameQ_ShMem.oe674 (.text:FrameQ_ShMem_free)
                  c374d7c0    00000040                               : FrameQ_ShMem.oe674 (.text:FrameQ_ShMem_getNumFreeFrames)
                  c374d800    00000040                               : FrameQ_ShMem.oe674 (.text:FrameQ_ShMem_getvNumFreeFrames)
                  c374d840    00000040                               : FrameQ_ShMem.oe674 (.text:FrameQ_ShMem_sendNotify)
                  c374d880    00000040                               : FrameQ.oe674 (.text:FrameQ_getConfig)
                  c374d8c0    00000040     ipc.ae674 : Ipc.obj (.text:Notify_intLineRegistered)
                  c374d900    00000040     ti.syslink.ipc.rtos.ae674 : RingIOShm.oe674 (.text:RingIOShm_destroy)
                  c374d940    00000040                               : SharedMemoryMgr.oe674 (.text:SyslinkMemMgr_SharedMemory_Params_init)
                  c374d980    00000040                               : TilerMemoryMgr.oe674 (.text:SyslinkMemMgr_TilerMemory_Params_init)
                  c374d9c0    00000040     rts6740_elf.lib : llshift.obj (.text:__c6xabi_llshru)
                  c374da00    00000040                     : strasg.obj (.text:__strasgi_64plus)
                  c374da40    00000040                     : args_main.obj (.text:_args_main)
                  c374da80    00000040     sysbios.ae674 : c62_TaskSupport_asm.obj (.text:_ti_sysbios_family_c62_TaskSupport_buildTaskStack)
                  c374dac0    00000040                   : c64p_Hwi_asm_switch.obj (.text:_ti_sysbios_family_xxx_Hwi_switchToIsrStack)
                  c374db00    00000040     dsp_pe674.oe674 (.text:free)
                  c374db40    00000040     ti.syslink.ipc.rtos.ae674 : FrameQBufMgr_ShMem.oe674 (.text:strcpy)
                  c374db80    00000040     ipc.ae674 : Ipc.obj (.text:ti_sdo_ipc_MessageQ_registerTransport__F)
                  c374dbc0    00000040               : Ipc.obj (.text:ti_sdo_ipc_MessageQ_unregisterTransport__F)
                  c374dc00    00000040               : Ipc.obj (.text:ti_sdo_ipc_Notify_exec__F)
                  c374dc40    00000040               : Ipc.obj (.text:ti_sdo_ipc_SharedRegion_resetInternalFields__F)
                  c374dc80    00000040               : Ipc.obj (.text:ti_sdo_ipc_family_da830_InterruptDsp_intClear__E)
                  c374dcc0    00000040               : Ipc.obj (.text:ti_sdo_ipc_family_da830_InterruptDsp_intSend__E)
                  c374dd00    00000040     dsp_pe674.oe674 (.text:ti_sdo_ipc_gates_GateMPSupportNull_Handle__label__S)
                  c374dd40    00000040     dsp_pe674.oe674 (.text:ti_sdo_ipc_gates_GateMPSupportNull_Object__delete__S)
                  c374dd80    00000040     dsp_pe674.oe674 (.text:ti_sdo_ipc_gates_GatePeterson_Handle__label__S)
                  c374ddc0    00000040     dsp_pe674.oe674 (.text:ti_sdo_ipc_heaps_HeapMemMP_Handle__label__S)
                  c374de00    00000040     dsp_pe674.oe674 (.text:ti_sdo_ipc_notifyDrivers_NotifyDriverShm_Handle__label__S)
                  c374de40    00000040     dsp_pe674.oe674 (.text:ti_sdo_ipc_nsremote_NameServerRemoteNotify_Handle__label__S)
                  c374de80    00000040     ipc.ae674 : Ipc.obj (.text:ti_sdo_ipc_nsremote_NameServerRemoteNotify_sharedMemReq__E)
                  c374dec0    00000040     dsp_pe674.oe674 (.text:ti_sdo_ipc_transports_TransportShm_Handle__label__S)
                  c374df00    00000040     dsp_pe674.oe674 (.text:ti_sdo_utils_List_Object__delete__S)
                  c374df40    00000040     ipc.ae674 : Ipc.obj (.text:ti_sdo_utils_List_get__E)
                  c374df80    00000040               : Ipc.obj (.text:ti_sdo_utils_List_putHead__E)
                  c374dfc0    00000040               : Ipc.obj (.text:ti_sdo_utils_List_put__E)
                  c374e000    00000040     dsp_pe674.oe674 (.text:ti_sdo_utils_NameServer_Module__startupDone__F)
                  c374e040    00000040     dsp_pe674.oe674 (.text:ti_sdo_utils_NameServer_Object__get__S)
                  c374e080    00000040     ipc.ae674 : Ipc.obj (.text:ti_sdo_utils_NameServer_registerRemoteDriver__E)
                  c374e0c0    00000040               : Ipc.obj (.text:ti_sdo_utils_NameServer_unregisterRemoteDriver__E)
                  c374e100    00000040     sysbios.ae674 : BIOS.obj (.text:ti_sysbios_BIOS_rtsUnlock__I)
                  c374e140    00000040     dsp_pe674.oe674 (.text:ti_sysbios_BIOS_startFunc__I)
                  c374e180    00000040     dsp_pe674.oe674 (.text:ti_sysbios_family_c64p_Hwi_Module__startupDone__F)
                  c374e1c0    00000040     sysbios.ae674 : BIOS.obj (.text:ti_sysbios_family_c64p_Hwi_disableInterrupt__E)
                  c374e200    00000040                   : BIOS.obj (.text:ti_sysbios_family_c64p_Hwi_enableInterrupt__E)
                  c374e240    00000040                   : BIOS.obj (.text:ti_sysbios_family_c64p_primus_TimerSupport_enable__E)
                  c374e280    00000040     dsp_pe674.oe674 (.text:ti_sysbios_gates_GateAll_Handle__label__S)
                  c374e2c0    00000040     dsp_pe674.oe674 (.text:ti_sysbios_gates_GateAll_Object__delete__S)
                  c374e300    00000040     dsp_pe674.oe674 (.text:ti_sysbios_gates_GateHwi_Handle__label__S)
                  c374e340    00000040     dsp_pe674.oe674 (.text:ti_sysbios_gates_GateHwi_Object__delete__S)
                  c374e380    00000040     dsp_pe674.oe674 (.text:ti_sysbios_gates_GateMutexPri_Handle__label__S)
                  c374e3c0    00000040     sysbios.ae674 : BIOS.obj (.text:ti_sysbios_gates_GateMutexPri_Instance_init__F)
                  c374e400    00000040     dsp_pe674.oe674 (.text:ti_sysbios_gates_GateMutexPri_Object__destruct__S)
                  c374e440    00000040     dsp_pe674.oe674 (.text:ti_sysbios_gates_GateMutex_Handle__label__S)
                  c374e480    00000040     sysbios.ae674 : BIOS.obj (.text:ti_sysbios_gates_GateMutex_leave__E)
                  c374e4c0    00000040     dsp_pe674.oe674 (.text:ti_sysbios_gates_GateSwi_Handle__label__S)
                  c374e500    00000040     dsp_pe674.oe674 (.text:ti_sysbios_gates_GateSwi_Object__delete__S)
                  c374e540    00000040     dsp_pe674.oe674 (.text:ti_sysbios_hal_Timer_Module__startupDone__F)
                  c374e580    00000040     dsp_pe674.oe674 (.text:ti_sysbios_heaps_HeapMem_Handle__label__S)
                  c374e5c0    00000040     dsp_pe674.oe674 (.text:ti_sysbios_heaps_HeapMem_Object__delete__S)
                  c374e600    00000040     dsp_pe674.oe674 (.text:ti_sysbios_heaps_HeapMem_Object__get__S)
                  c374e640    00000040     sysbios.ae674 : BIOS.obj (.text:ti_sysbios_knl_Queue_put__E)
                  c374e680    00000040     dsp_pe674.oe674 (.text:ti_sysbios_knl_Semaphore_Object__destruct__S)
                  c374e6c0    00000040     dsp_pe674.oe674 (.text:ti_sysbios_knl_Swi_Object__destruct__S)
                  c374e700    00000040     dsp_pe674.oe674 (.text:ti_sysbios_knl_Swi_Object__get__S)
                  c374e740    00000040     dsp_pe674.oe674 (.text:ti_sysbios_knl_Task_Object__get__S)
                  c374e780    00000040     dsp_pe674.oe674 (.text:ti_sysbios_timers_timer64_Timer_Module__startupDone__F)
                  c374e7c0    00000040     sysbios.ae674 : BIOS.obj (.text:ti_sysbios_xdcruntime_GateThreadSupport_Instance_init__F)
                  c374e800    00000040     ti.syslink.ipc.rtos.ae674 : Syslink.oe674 (.text:ti_syslink_ipc_rtos_Syslink_detach)
                  c374e840    00000040     ti.targets.rts6000.ae674 : Error.oe674 (.text:xdc_runtime_Error_check__F)
                  c374e880    00000040                              : Error.oe674 (.text:xdc_runtime_Error_init__F)
                  c374e8c0    00000040     dsp_pe674.oe674 (.text:xdc_runtime_GateNull_Handle__label__S)
                  c374e900    00000040     dsp_pe674.oe674 (.text:xdc_runtime_GateNull_Object__delete__S)
                  c374e940    00000040     dsp_pe674.oe674 (.text:xdc_runtime_LoggerBuf_Handle__label__S)
                  c374e980    00000040     ti.targets.rts6000.ae674 : LoggerBuf.oe674 (.text:xdc_runtime_LoggerBuf_Instance_finalize__F)
                  c374e9c0    00000040     dsp_pe674.oe674 (.text:xdc_runtime_LoggerBuf_Object__get__S)
                  c374ea00    00000040     ti.targets.rts6000.ae674 : LoggerBuf.oe674 (.text:xdc_runtime_LoggerBuf_write0__F)
                  c374ea40    00000040     dsp_pe674.oe674 (.text:xdc_runtime_LoggerBuf_write8__E)
                  c374ea80    00000040     ti.targets.rts6000.ae674 : Memory.oe674 (.text:xdc_runtime_Memory_free__F)
                  c374eac0    00000040                              : Registry.oe674 (.text:xdc_runtime_Registry_findById__F)
                  c374eb00    00000040                              : System.oe674 (.text:xdc_runtime_System_abort__F)
                  c374eb40    00000040     dsp_pe674.oe674 (.text:xdc_runtime_System_aprintf__E)
                  c374eb80    00000040     dsp_pe674.oe674 (.text:xdc_runtime_System_printf__E)
                  c374ebc0    00000040     ti.targets.rts6000.ae674 : Text.oe674 (.text:xdc_runtime_Text_ropeText__F)
                  c374ec00    00000040     dsp_pe674.oe674 (.text:xdc_runtime_knl_GateThread_Handle__label__S)
                  c374ec40    00000040     ti.targets.rts6000.ae674 : GateThread.oe674 (.text:xdc_runtime_knl_GateThread_Instance_finalize__F)
                  c374ec80    00000040                              : GateThread.oe674 (.text:xdc_runtime_knl_GateThread_Instance_init__F)
                  c374ecc0    00000020     ti.syslink.ipc.rtos.ae674 : ClientNotifyMgr.oe674 (.text:ClientNotifyMgr_close)
                  c374ece0    00000020                               : ClientNotifyMgr.oe674 (.text:ClientNotifyMgr_create)
                  c374ed00    00000020                               : ClientNotifyMgr.oe674 (.text:ClientNotifyMgr_deleteNameServer)
                  c374ed20    00000020                               : FrameQBufMgr_ShMem.oe674 (.text:FrameQBufMgr_ShMem_add)
                  c374ed40    00000020                               : FrameQBufMgr_ShMem.oe674 (.text:FrameQBufMgr_ShMem_close)
                  c374ed60    00000020                               : FrameQBufMgr_ShMem.oe674 (.text:FrameQBufMgr_ShMem_control)
                  c374ed80    00000020                               : FrameQBufMgr_ShMem.oe674 (.text:FrameQBufMgr_ShMem_getId)
                  c374eda0    00000020                               : FrameQBufMgr_ShMem.oe674 (.text:FrameQBufMgr_ShMem_isCacheEnabledForFrameBuf)
                  c374edc0    00000020                               : FrameQBufMgr_ShMem.oe674 (.text:FrameQBufMgr_ShMem_isCacheEnabledForHeaderBuf)
                  c374ede0    00000020                               : FrameQBufMgr_ShMem.oe674 (.text:FrameQBufMgr_ShMem_remove)
                  c374ee00    00000020                               : FrameQBufMgr.oe674 (.text:FrameQBufMgr_alloc)
                  c374ee20    00000020                               : FrameQBufMgr.oe674 (.text:FrameQBufMgr_allocv)
                  c374ee40    00000020                               : FrameQBufMgr.oe674 (.text:FrameQBufMgr_close)
                  c374ee60    00000020                               : FrameQBufMgr.oe674 (.text:FrameQBufMgr_dup)
                  c374ee80    00000020                               : FrameQBufMgr.oe674 (.text:FrameQBufMgr_dupv)
                  c374eea0    00000020                               : FrameQBufMgr.oe674 (.text:FrameQBufMgr_free)
                  c374eec0    00000020                               : FrameQBufMgr.oe674 (.text:FrameQBufMgr_freev)
                  c374eee0    00000020                               : FrameQBufMgr.oe674 (.text:FrameQBufMgr_getBaseHeaderSize)
                  c374ef00    00000020                               : FrameQBufMgr.oe674 (.text:FrameQBufMgr_getId)
                  c374ef20    00000020                               : FrameQBufMgr.oe674 (.text:FrameQBufMgr_getNumFreeFrames)
                  c374ef40    00000020                               : FrameQBufMgr.oe674 (.text:FrameQBufMgr_getvNumFreeFrames)
                  c374ef60    00000020                               : FrameQBufMgr.oe674 (.text:FrameQBufMgr_invalidateFrameBuf)
                  c374ef80    00000020                               : FrameQBufMgr.oe674 (.text:FrameQBufMgr_invalidateHeaderBuf)
                  c374efa0    00000020                               : FrameQBufMgr.oe674 (.text:FrameQBufMgr_isCacheEnabledForFrameBuf)
                  c374efc0    00000020                               : FrameQBufMgr.oe674 (.text:FrameQBufMgr_isCacheEnabledForHeaderBuf)
                  c374efe0    00000020                               : FrameQBufMgr.oe674 (.text:FrameQBufMgr_registerNotifier)
                  c374f000    00000020                               : FrameQBufMgr.oe674 (.text:FrameQBufMgr_translateAddr)
                  c374f020    00000020                               : FrameQBufMgr.oe674 (.text:FrameQBufMgr_unregisterNotifier)
                  c374f040    00000020                               : FrameQBufMgr.oe674 (.text:FrameQBufMgr_writeBackFrameBuf)
                  c374f060    00000020                               : FrameQBufMgr.oe674 (.text:FrameQBufMgr_writeBackHeaderBuf)
                  c374f080    00000020                               : FrameQ_ShMem.oe674 (.text:FrameQ_ShMem_Params_init)
                  c374f0a0    00000020                               : FrameQ_ShMem.oe674 (.text:FrameQ_ShMem_close)
                  c374f0c0    00000020                               : FrameQ_ShMem.oe674 (.text:FrameQ_ShMem_control)
                  c374f0e0    00000020     ipc.ae674 : Ipc.obj (.text:GateMP_delete)
                  c374f100    00000020               : Ipc.obj (.text:GateMP_enter)
                  c374f120    00000020               : Ipc.obj (.text:GateMP_getDefaultRemote)
                  c374f140    00000020               : Ipc.obj (.text:GateMP_getLocalProtect)
                  c374f160    00000020               : Ipc.obj (.text:GateMP_leave)
                  c374f180    00000020               : Ipc.obj (.text:ListMP_Params_init)
                  c374f1a0    00000020               : Ipc.obj (.text:ListMP_close)
                  c374f1c0    00000020               : Ipc.obj (.text:ListMP_delete)
                  c374f1e0    00000020               : Ipc.obj (.text:MultiProc_getNumProcessors)
                  c374f200    00000020               : Ipc.obj (.text:MultiProc_self)
                  c374f220    00000020               : Ipc.obj (.text:NameServer_Params_init)
                  c374f240    00000020               : Ipc.obj (.text:NameServer_addUInt32)
                  c374f260    00000020               : Ipc.obj (.text:NameServer_delete)
                  c374f280    00000020               : Ipc.obj (.text:NameServer_getUInt32)
                  c374f2a0    00000020               : Ipc.obj (.text:NameServer_removeEntry)
                  c374f2c0    00000020     ti.syslink.ipc.rtos.ae674 : RingIOShm.oe674 (.text:RingIOShm_getConfig)
                  c374f2e0    00000020                               : RingIO.oe674 (.text:RingIO_Params_init)
                  c374f300    00000020                               : RingIO.oe674 (.text:RingIO_getConfig)
                  c374f320    00000020     ipc.ae674 : Ipc.obj (.text:SharedRegion_invalidSRPtr)
                  c374f340    00000020     ti.syslink.ipc.rtos.ae674 : _Syslink.oe674 (.text:SysLink_destroy)
                  c374f360    00000020                               : TilerMemoryMgr.oe674 (.text:SyslinkMemMgr_TilerMemory_alloc)
                  c374f380    00000020                               : TilerMemoryMgr.oe674 (.text:SyslinkMemMgr_TilerMemory_free)
                  c374f3a0    00000020                               : TilerMemoryMgr.oe674 (.text:SyslinkMemMgr_TilerMemory_translate)
                  c374f3c0    00000020                               : SyslinkMemMgr.oe674 (.text:SyslinkMemMgr_translate)
                  c374f3e0    00000020     utils.lib : uartStdio.obj (.text:UARTGetc)
                  c374f400    00000020               : uartStdio.obj (.text:UARTPutc)
                  c374f420    00000020               : uartStdio.obj (.text:UARTStdioInit)
                  c374f440    00000020     ti.syslink.ipc.rtos.ae674 : FrameQBufMgr_ShMem.oe674 (.text:_FrameQBufMgr_ShMem_getCliNotifyMgrGateShAddr)
                  c374f460    00000020                               : FrameQBufMgr_ShMem.oe674 (.text:_FrameQBufMgr_ShMem_getCliNotifyMgrShAddr)
                  c374f480    00000020                               : FrameQBufMgr_ShMem.oe674 (.text:_FrameQBufMgr_ShMem_resetNotifyId)
                  c374f4a0    00000020                               : FrameQBufMgr_ShMem.oe674 (.text:_FrameQBufMgr_ShMem_setNotifyId)
                  c374f4c0    00000020                               : FrameQ_ShMem.oe674 (.text:_FrameQ_ShMem_getCliNotifyMgrGate)
                  c374f4e0    00000020                               : FrameQ_ShMem.oe674 (.text:_FrameQ_ShMem_getCliNotifyMgrGateShAddr)
                  c374f500    00000020                               : FrameQ_ShMem.oe674 (.text:_FrameQ_ShMem_getCliNotifyMgrHandle)
                  c374f520    00000020                               : FrameQ_ShMem.oe674 (.text:_FrameQ_ShMem_getCliNotifyMgrShAddr)
                  c374f540    00000020     rts6740_elf.lib : dtor_list.obj (.text:__cxa_atexit)
                  c374f560    00000020                     : dtor_list.obj (.text:__cxa_ia64_exit)
                  c374f580    00000020     ti.targets.rts6000.ae674 : xdc_noinit.oe674 (.text:__xdc__init)
                  c374f5a0    00000020     rts6740_elf.lib : _lock.obj (.text:_nop)
                  c374f5c0    00000020                     : _lock.obj (.text:_register_lock)
                  c374f5e0    00000020                     : _lock.obj (.text:_register_unlock)
                  c374f600    00000020     sysbios.ae674 : c62_TaskSupport_asm.obj (.text:_ti_sysbios_family_c62_TaskSupport_glue)
                  c374f620    00000020                   : c64p_Hwi_asm_switch.obj (.text:_ti_sysbios_family_xxx_Hwi_switchToTaskStack)
                  c374f640    00000020     rts6740_elf.lib : exit.obj (.text:abort)
                  c374f660    00000020                     : dtor_list.obj (.text:atexit)
                  c374f680    00000020     dsp_pe674.oe674 (.text:ti_sdo_ipc_GateMP_Params__init__S)
                  c374f6a0    00000020     dsp_pe674.oe674 (.text:ti_sdo_ipc_GateMP_RemoteCustom1Proxy_Object__create__S)
                  c374f6c0    00000020     dsp_pe674.oe674 (.text:ti_sdo_ipc_GateMP_RemoteCustom1Proxy_Object__delete__S)
                  c374f6e0    00000020     dsp_pe674.oe674 (.text:ti_sdo_ipc_GateMP_RemoteCustom1Proxy_Params__init__S)
                  c374f700    00000020     dsp_pe674.oe674 (.text:ti_sdo_ipc_GateMP_RemoteCustom1Proxy_Proxy__abstract__S)
                  c374f720    00000020     dsp_pe674.oe674 (.text:ti_sdo_ipc_GateMP_RemoteCustom1Proxy_Proxy__delegate__S)
                  c374f740    00000020     dsp_pe674.oe674 (.text:ti_sdo_ipc_GateMP_RemoteCustom1Proxy_getReservedMask__E)
                  c374f760    00000020     dsp_pe674.oe674 (.text:ti_sdo_ipc_GateMP_RemoteCustom1Proxy_sharedMemReq__E)
                  c374f780    00000020     dsp_pe674.oe674 (.text:ti_sdo_ipc_GateMP_RemoteCustom2Proxy_Object__create__S)
                  c374f7a0    00000020     dsp_pe674.oe674 (.text:ti_sdo_ipc_GateMP_RemoteCustom2Proxy_Object__delete__S)
                  c374f7c0    00000020     dsp_pe674.oe674 (.text:ti_sdo_ipc_GateMP_RemoteCustom2Proxy_Params__init__S)
                  c374f7e0    00000020     dsp_pe674.oe674 (.text:ti_sdo_ipc_GateMP_RemoteCustom2Proxy_Proxy__abstract__S)
                  c374f800    00000020     dsp_pe674.oe674 (.text:ti_sdo_ipc_GateMP_RemoteCustom2Proxy_Proxy__delegate__S)
                  c374f820    00000020     dsp_pe674.oe674 (.text:ti_sdo_ipc_GateMP_RemoteCustom2Proxy_getReservedMask__E)
                  c374f840    00000020     dsp_pe674.oe674 (.text:ti_sdo_ipc_GateMP_RemoteCustom2Proxy_sharedMemReq__E)
                  c374f860    00000020     dsp_pe674.oe674 (.text:ti_sdo_ipc_GateMP_RemoteSystemProxy_Object__create__S)
                  c374f880    00000020     dsp_pe674.oe674 (.text:ti_sdo_ipc_GateMP_RemoteSystemProxy_Object__delete__S)
                  c374f8a0    00000020     dsp_pe674.oe674 (.text:ti_sdo_ipc_GateMP_RemoteSystemProxy_Params__init__S)
                  c374f8c0    00000020     dsp_pe674.oe674 (.text:ti_sdo_ipc_GateMP_RemoteSystemProxy_Proxy__abstract__S)
                  c374f8e0    00000020     dsp_pe674.oe674 (.text:ti_sdo_ipc_GateMP_RemoteSystemProxy_Proxy__delegate__S)
                  c374f900    00000020     dsp_pe674.oe674 (.text:ti_sdo_ipc_GateMP_RemoteSystemProxy_getReservedMask__E)
                  c374f920    00000020     dsp_pe674.oe674 (.text:ti_sdo_ipc_GateMP_RemoteSystemProxy_sharedMemReq__E)
                  c374f940    00000020     dsp_pe674.oe674 (.text:ti_sdo_ipc_GateMP_attach__E)
                  c374f960    00000020     dsp_pe674.oe674 (.text:ti_sdo_ipc_GateMP_detach__E)
                  c374f980    00000020     dsp_pe674.oe674 (.text:ti_sdo_ipc_GateMP_getRegion0ReservedSize__E)
                  c374f9a0    00000020     dsp_pe674.oe674 (.text:ti_sdo_ipc_GateMP_getSharedAddr__E)
                  c374f9c0    00000020     ipc.ae674 : Ipc.obj (.text:ti_sdo_ipc_GateMP_getSharedAddr__F)
                  c374f9e0    00000020     dsp_pe674.oe674 (.text:ti_sdo_ipc_GateMP_start__E)
                  c374fa00    00000020     dsp_pe674.oe674 (.text:ti_sdo_ipc_GateMP_stop__E)
                  c374fa20    00000020     dsp_pe674.oe674 (.text:ti_sdo_ipc_ListMP_Params__init__S)
                  c374fa40    00000020     dsp_pe674.oe674 (.text:ti_sdo_ipc_MessageQ_Module_startup__E)
                  c374fa60    00000020     dsp_pe674.oe674 (.text:ti_sdo_ipc_MessageQ_Object__get__S)
                  c374fa80    00000020     dsp_pe674.oe674 (.text:ti_sdo_ipc_MessageQ_SetupTransportProxy_attach__E)
                  c374faa0    00000020     dsp_pe674.oe674 (.text:ti_sdo_ipc_MessageQ_SetupTransportProxy_detach__E)
                  c374fac0    00000020     dsp_pe674.oe674 (.text:ti_sdo_ipc_MessageQ_SetupTransportProxy_isRegistered__E)
                  c374fae0    00000020     dsp_pe674.oe674 (.text:ti_sdo_ipc_MessageQ_SetupTransportProxy_sharedMemReq__E)
                  c374fb00    00000020     dsp_pe674.oe674 (.text:ti_sdo_ipc_MessageQ_registerTransport__E)
                  c374fb20    00000020     dsp_pe674.oe674 (.text:ti_sdo_ipc_MessageQ_unregisterTransport__E)
                  c374fb40    00000020     dsp_pe674.oe674 (.text:ti_sdo_ipc_Notify_Module_GateProxy_enter__E)
                  c374fb60    00000020     dsp_pe674.oe674 (.text:ti_sdo_ipc_Notify_Module_GateProxy_leave__E)
                  c374fb80    00000020     dsp_pe674.oe674 (.text:ti_sdo_ipc_Notify_Module_startup__E)
                  c374fba0    00000020     dsp_pe674.oe674 (.text:ti_sdo_ipc_Notify_SetupProxy_attach__E)
                  c374fbc0    00000020     dsp_pe674.oe674 (.text:ti_sdo_ipc_Notify_SetupProxy_numIntLines__E)
                  c374fbe0    00000020     dsp_pe674.oe674 (.text:ti_sdo_ipc_Notify_SetupProxy_sharedMemReq__E)
                  c374fc00    00000020     dsp_pe674.oe674 (.text:ti_sdo_ipc_Notify_detach__E)
                  c374fc20    00000020     dsp_pe674.oe674 (.text:ti_sdo_ipc_Notify_exec__E)
                  c374fc40    00000020     dsp_pe674.oe674 (.text:ti_sdo_ipc_SharedRegion_attach__E)
                  c374fc60    00000020     dsp_pe674.oe674 (.text:ti_sdo_ipc_SharedRegion_clearReservedMemory__E)
                  c374fc80    00000020     dsp_pe674.oe674 (.text:ti_sdo_ipc_SharedRegion_detach__E)
                  c374fca0    00000020     dsp_pe674.oe674 (.text:ti_sdo_ipc_SharedRegion_reserveMemory__E)
                  c374fcc0    00000020     dsp_pe674.oe674 (.text:ti_sdo_ipc_SharedRegion_resetInternalFields__E)
                  c374fce0    00000020     dsp_pe674.oe674 (.text:ti_sdo_ipc_SharedRegion_start__E)
                  c374fd00    00000020     dsp_pe674.oe674 (.text:ti_sdo_ipc_SharedRegion_stop__E)
                  c374fd20    00000020     ipc.ae674 : Ipc.obj (.text:ti_sdo_ipc_family_da830_InterruptDsp_intDisable__E)
                  c374fd40    00000020               : Ipc.obj (.text:ti_sdo_ipc_family_da830_InterruptDsp_intEnable__E)
                  c374fd60    00000020               : Ipc.obj (.text:ti_sdo_ipc_family_da830_InterruptDsp_intUnregister__E)
                  c374fd80    00000020               : Ipc.obj (.text:ti_sdo_ipc_family_da830_NotifySetup_numIntLines__E)
                  c374fda0    00000020               : Ipc.obj (.text:ti_sdo_ipc_gates_GateMPSupportNull_Instance_init__F)
                  c374fdc0    00000020     dsp_pe674.oe674 (.text:ti_sdo_ipc_gates_GateMPSupportNull_Params__init__S)
                  c374fde0    00000020     ipc.ae674 : Ipc.obj (.text:ti_sdo_ipc_gates_GateMPSupportNull_enter__E)
                  c374fe00    00000020               : Ipc.obj (.text:ti_sdo_ipc_gates_GateMPSupportNull_getReservedMask__E)
                  c374fe20    00000020               : Ipc.obj (.text:ti_sdo_ipc_gates_GateMPSupportNull_leave__E)
                  c374fe40    00000020     dsp_pe674.oe674 (.text:ti_sdo_ipc_gates_GateMPSupportNull_query__E)
                  c374fe60    00000020     ipc.ae674 : Ipc.obj (.text:ti_sdo_ipc_gates_GateMPSupportNull_query__F)
                  c374fe80    00000020               : Ipc.obj (.text:ti_sdo_ipc_gates_GateMPSupportNull_sharedMemReq__E)
                  c374fea0    00000020     dsp_pe674.oe674 (.text:ti_sdo_ipc_gates_GatePeterson_Params__init__S)
                  c374fec0    00000020     ipc.ae674 : Ipc.obj (.text:ti_sdo_ipc_gates_GatePeterson_getReservedMask__E)
                  c374fee0    00000020     dsp_pe674.oe674 (.text:ti_sdo_ipc_gates_GatePeterson_query__E)
                  c374ff00    00000020     ipc.ae674 : Ipc.obj (.text:ti_sdo_ipc_gates_GatePeterson_query__F)
                  c374ff20    00000020     dsp_pe674.oe674 (.text:ti_sdo_ipc_heaps_HeapMemMP_Params__init__S)
                  c374ff40    00000020     dsp_pe674.oe674 (.text:ti_sdo_ipc_heaps_HeapMemMP_isBlocking__E)
                  c374ff60    00000020     ipc.ae674 : Ipc.obj (.text:ti_sdo_ipc_heaps_HeapMemMP_isBlocking__F)
                  c374ff80    00000020     dsp_pe674.oe674 (.text:ti_sdo_ipc_notifyDrivers_NotifyDriverShm_InterruptProxy_intClear__E)
                  c374ffa0    00000020     dsp_pe674.oe674 (.text:ti_sdo_ipc_notifyDrivers_NotifyDriverShm_InterruptProxy_intDisable__E)
                  c374ffc0    00000020     dsp_pe674.oe674 (.text:ti_sdo_ipc_notifyDrivers_NotifyDriverShm_InterruptProxy_intEnable__E)
                  c374ffe0    00000020     dsp_pe674.oe674 (.text:ti_sdo_ipc_notifyDrivers_NotifyDriverShm_InterruptProxy_intRegister__E)
                  c3750000    00000020     dsp_pe674.oe674 (.text:ti_sdo_ipc_notifyDrivers_NotifyDriverShm_InterruptProxy_intSend__E)
                  c3750020    00000020     dsp_pe674.oe674 (.text:ti_sdo_ipc_notifyDrivers_NotifyDriverShm_InterruptProxy_intUnregister__E)
                  c3750040    00000020     dsp_pe674.oe674 (.text:ti_sdo_ipc_notifyDrivers_NotifyDriverShm_Params__init__S)
                  c3750060    00000020     ipc.ae674 : Ipc.obj (.text:ti_sdo_ipc_notifyDrivers_NotifyDriverShm_disable__E)
                  c3750080    00000020               : Ipc.obj (.text:ti_sdo_ipc_notifyDrivers_NotifyDriverShm_enable__E)
                  c37500a0    00000020     dsp_pe674.oe674 (.text:ti_sdo_ipc_notifyDrivers_NotifyDriverShm_sharedMemReq__E)
                  c37500c0    00000020     dsp_pe674.oe674 (.text:ti_sdo_ipc_nsremote_NameServerRemoteNotify_Object__first__S)
                  c37500e0    00000020     dsp_pe674.oe674 (.text:ti_sdo_ipc_nsremote_NameServerRemoteNotify_Object__next__S)
                  c3750100    00000020     dsp_pe674.oe674 (.text:ti_sdo_ipc_nsremote_NameServerRemoteNotify_Params__init__S)
                  c3750120    00000020     ipc.ae674 : Ipc.obj (.text:ti_sdo_ipc_nsremote_NameServerRemoteNotify_cbFxn__I)
                  c3750140    00000020     dsp_pe674.oe674 (.text:ti_sdo_ipc_nsremote_NameServerRemoteNotify_get__E)
                  c3750160    00000020     ipc.ae674 : Ipc.obj (.text:ti_sdo_ipc_transports_TransportShmSetup_isRegistered__E)
                  c3750180    00000020     dsp_pe674.oe674 (.text:ti_sdo_ipc_transports_TransportShm_Params__init__S)
                  c37501a0    00000020     dsp_pe674.oe674 (.text:ti_sdo_ipc_transports_TransportShm_close__E)
                  c37501c0    00000020     ipc.ae674 : Ipc.obj (.text:ti_sdo_ipc_transports_TransportShm_close__F)
                  c37501e0    00000020               : Ipc.obj (.text:ti_sdo_ipc_transports_TransportShm_control__E)
                  c3750200    00000020               : Ipc.obj (.text:ti_sdo_ipc_transports_TransportShm_getStatus__E)
                  c3750220    00000020               : Ipc.obj (.text:ti_sdo_ipc_transports_TransportShm_notifyFxn__I)
                  c3750240    00000020     dsp_pe674.oe674 (.text:ti_sdo_ipc_transports_TransportShm_openByAddr__E)
                  c3750260    00000020     dsp_pe674.oe674 (.text:ti_sdo_ipc_transports_TransportShm_setErrFxn__E)
                  c3750280    00000020     ipc.ae674 : Ipc.obj (.text:ti_sdo_ipc_transports_TransportShm_setErrFxn__F)
                  c37502a0    00000020     dsp_pe674.oe674 (.text:ti_sdo_ipc_transports_TransportShm_sharedMemReq__E)
                  c37502c0    00000020     ipc.ae674 : Ipc.obj (.text:ti_sdo_utils_List_Instance_init__F)
                  c37502e0    00000020     dsp_pe674.oe674 (.text:ti_sdo_utils_List_Object__destruct__S)
                  c3750300    00000020     dsp_pe674.oe674 (.text:ti_sdo_utils_List_Object__get__S)
                  c3750320    00000020     dsp_pe674.oe674 (.text:ti_sdo_utils_List_Params__init__S)
                  c3750340    00000020     ipc.ae674 : Ipc.obj (.text:ti_sdo_utils_List_elemClear__E)
                  c3750360    00000020               : Ipc.obj (.text:ti_sdo_utils_List_empty__E)
                  c3750380    00000020               : Ipc.obj (.text:ti_sdo_utils_List_next__E)
                  c37503a0    00000020               : Ipc.obj (.text:ti_sdo_utils_List_remove__E)
                  c37503c0    00000020     dsp_pe674.oe674 (.text:ti_sdo_utils_MultiProc_getClusterId__E)
                  c37503e0    00000020     ipc.ae674 : Ipc.obj (.text:ti_sdo_utils_MultiProc_getClusterId__F)
                  c3750400    00000020     dsp_pe674.oe674 (.text:ti_sdo_utils_NameServer_Module__startupDone__S)
                  c3750420    00000020     dsp_pe674.oe674 (.text:ti_sdo_utils_NameServer_Module_startup__E)
                  c3750440    00000020     dsp_pe674.oe674 (.text:ti_sdo_utils_NameServer_Object__first__S)
                  c3750460    00000020     dsp_pe674.oe674 (.text:ti_sdo_utils_NameServer_Object__next__S)
                  c3750480    00000020     dsp_pe674.oe674 (.text:ti_sdo_utils_NameServer_Params__init__S)
                  c37504a0    00000020     dsp_pe674.oe674 (.text:ti_sdo_utils_NameServer_SetupProxy_attach__E)
                  c37504c0    00000020     dsp_pe674.oe674 (.text:ti_sdo_utils_NameServer_SetupProxy_detach__E)
                  c37504e0    00000020     dsp_pe674.oe674 (.text:ti_sdo_utils_NameServer_SetupProxy_sharedMemReq__E)
                  c3750500    00000020     dsp_pe674.oe674 (.text:ti_sysbios_BIOS_RtsGateProxy_enter__E)
                  c3750520    00000020     dsp_pe674.oe674 (.text:ti_sysbios_BIOS_RtsGateProxy_leave__E)
                  c3750540    00000020     sysbios.ae674 : BIOS.obj (.text:ti_sysbios_BIOS_getThreadType__E)
                  c3750560    00000020                   : BIOS.obj (.text:ti_sysbios_BIOS_nullFunc__I)
                  c3750580    00000020                   : BIOS.obj (.text:ti_sysbios_BIOS_setThreadType__E)
                  c37505a0    00000020                   : BIOS.obj (.text:ti_sysbios_BIOS_start__E)
                  c37505c0    00000020     dsp_pe674.oe674 (.text:ti_sysbios_family_c62_TaskSupport_Module__startupDone__S)
                  c37505e0    00000020     sysbios.ae674 : BIOS.obj (.text:ti_sysbios_family_c62_TaskSupport_checkStack__E)
                  c3750600    00000020                   : BIOS.obj (.text:ti_sysbios_family_c62_TaskSupport_getStackAlignment__E)
                  c3750620    00000020     dsp_pe674.oe674 (.text:ti_sysbios_family_c64p_Cache_Module_startup__E)
                  c3750640    00000020     sysbios.ae674 : BIOS.obj (.text:ti_sysbios_family_c64p_Cache_invL1pAll__E)
                  c3750660    00000020                   : BIOS.obj (.text:ti_sysbios_family_c64p_Cache_inv__E)
                  c3750680    00000020                   : BIOS.obj (.text:ti_sysbios_family_c64p_Cache_wbInv__E)
                  c37506a0    00000020                   : BIOS.obj (.text:ti_sysbios_family_c64p_Cache_wb__E)
                  c37506c0    00000020     dsp_pe674.oe674 (.text:ti_sysbios_family_c64p_Exception_Module_startup__E)
                  c37506e0    00000020     dsp_pe674.oe674 (.text:ti_sysbios_family_c64p_Hwi_Module__startupDone__S)
                  c3750700    00000020     dsp_pe674.oe674 (.text:ti_sysbios_family_c64p_Hwi_Module_startup__E)
                  c3750720    00000020     dsp_pe674.oe674 (.text:ti_sysbios_family_c64p_Hwi_Params__init__S)
                  c3750740    00000020     sysbios.ae674 : BIOS.obj (.text:ti_sysbios_family_c64p_Hwi_clearInterrupt__E)
                  c3750760    00000020                   : BIOS.obj (.text:ti_sysbios_family_c64p_Hwi_getHandle__E)
                  c3750780    00000020                   : BIOS.obj (.text:ti_sysbios_family_c64p_Hwi_startup__E)
                  c37507a0    00000020                   : BIOS.obj (.text:ti_sysbios_family_c64p_Hwi_switchFromBootStack__E)
                  c37507c0    00000020                   : BIOS.obj (.text:ti_sysbios_family_c64p_Hwi_unPluggedInterrupt__I)
                  c37507e0    00000020     dsp_pe674.oe674 (.text:ti_sysbios_family_c64p_TimestampProvider_Module_startup__E)
                  c3750800    00000020     sysbios.ae674 : BIOS.obj (.text:ti_sysbios_family_c64p_TimestampProvider_Module_startup__F)
                  c3750820    00000020                   : BIOS.obj (.text:ti_sysbios_family_c64p_TimestampProvider_get64__E)
                  c3750840    00000020                   : BIOS.obj (.text:ti_sysbios_gates_GateAll_Instance_init__F)
                  c3750860    00000020     dsp_pe674.oe674 (.text:ti_sysbios_gates_GateAll_query__E)
                  c3750880    00000020     sysbios.ae674 : BIOS.obj (.text:ti_sysbios_gates_GateAll_query__F)
                  c37508a0    00000020                   : BIOS.obj (.text:ti_sysbios_gates_GateHwi_Instance_init__F)
                  c37508c0    00000020                   : BIOS.obj (.text:ti_sysbios_gates_GateHwi_enter__E)
                  c37508e0    00000020                   : BIOS.obj (.text:ti_sysbios_gates_GateHwi_leave__E)
                  c3750900    00000020     dsp_pe674.oe674 (.text:ti_sysbios_gates_GateHwi_query__E)
                  c3750920    00000020     sysbios.ae674 : BIOS.obj (.text:ti_sysbios_gates_GateHwi_query__F)
                  c3750940    00000020                   : BIOS.obj (.text:ti_sysbios_gates_GateMutexPri_Instance_finalize__F)
                  c3750960    00000020     dsp_pe674.oe674 (.text:ti_sysbios_gates_GateMutexPri_query__E)
                  c3750980    00000020     sysbios.ae674 : BIOS.obj (.text:ti_sysbios_gates_GateMutexPri_query__F)
                  c37509a0    00000020                   : BIOS.obj (.text:ti_sysbios_gates_GateMutex_Instance_finalize__F)
                  c37509c0    00000020     dsp_pe674.oe674 (.text:ti_sysbios_gates_GateMutex_query__E)
                  c37509e0    00000020     sysbios.ae674 : BIOS.obj (.text:ti_sysbios_gates_GateMutex_query__F)
                  c3750a00    00000020                   : BIOS.obj (.text:ti_sysbios_gates_GateSwi_Instance_init__F)
                  c3750a20    00000020                   : BIOS.obj (.text:ti_sysbios_gates_GateSwi_enter__E)
                  c3750a40    00000020                   : BIOS.obj (.text:ti_sysbios_gates_GateSwi_leave__E)
                  c3750a60    00000020     dsp_pe674.oe674 (.text:ti_sysbios_gates_GateSwi_query__E)
                  c3750a80    00000020     sysbios.ae674 : BIOS.obj (.text:ti_sysbios_gates_GateSwi_query__F)
                  c3750aa0    00000020     dsp_pe674.oe674 (.text:ti_sysbios_hal_Cache_CacheProxy_inv__E)
                  c3750ac0    00000020     dsp_pe674.oe674 (.text:ti_sysbios_hal_Cache_CacheProxy_wbInv__E)
                  c3750ae0    00000020     dsp_pe674.oe674 (.text:ti_sysbios_hal_Cache_CacheProxy_wb__E)
                  c3750b00    00000020     sysbios.ae674 : BIOS.obj (.text:ti_sysbios_hal_Cache_inv__E)
                  c3750b20    00000020                   : BIOS.obj (.text:ti_sysbios_hal_Cache_wbInv__E)
                  c3750b40    00000020                   : BIOS.obj (.text:ti_sysbios_hal_Cache_wb__E)
                  c3750b60    00000020     dsp_pe674.oe674 (.text:ti_sysbios_hal_Hwi_HwiProxy_Module__startupDone__S)
                  c3750b80    00000020     dsp_pe674.oe674 (.text:ti_sysbios_hal_Hwi_HwiProxy_clearInterrupt__E)
                  c3750ba0    00000020     dsp_pe674.oe674 (.text:ti_sysbios_hal_Hwi_HwiProxy_disableInterrupt__E)
                  c3750bc0    00000020     dsp_pe674.oe674 (.text:ti_sysbios_hal_Hwi_HwiProxy_enableInterrupt__E)
                  c3750be0    00000020     dsp_pe674.oe674 (.text:ti_sysbios_hal_Hwi_HwiProxy_getStackInfo__E)
                  c3750c00    00000020     dsp_pe674.oe674 (.text:ti_sysbios_hal_Hwi_HwiProxy_startup__E)
                  c3750c20    00000020     dsp_pe674.oe674 (.text:ti_sysbios_hal_Hwi_HwiProxy_switchFromBootStack__E)
                  c3750c40    00000020     dsp_pe674.oe674 (.text:ti_sysbios_hal_Hwi_Module_startup__E)
                  c3750c60    00000020     sysbios.ae674 : BIOS.obj (.text:ti_sysbios_hal_Hwi_Module_startup__F)
                  c3750c80    00000020                   : BIOS.obj (.text:ti_sysbios_hal_Hwi_startup__E)
                  c3750ca0    00000020     dsp_pe674.oe674 (.text:ti_sysbios_hal_Timer_Module__startupDone__S)
                  c3750cc0    00000020     dsp_pe674.oe674 (.text:ti_sysbios_hal_Timer_Module_startup__E)
                  c3750ce0    00000020     sysbios.ae674 : BIOS.obj (.text:ti_sysbios_hal_Timer_Module_startup__F)
                  c3750d00    00000020     dsp_pe674.oe674 (.text:ti_sysbios_hal_Timer_TimerProxy_Module__startupDone__S)
                  c3750d20    00000020     dsp_pe674.oe674 (.text:ti_sysbios_hal_Timer_TimerProxy_getExpiredCounts__E)
                  c3750d40    00000020     dsp_pe674.oe674 (.text:ti_sysbios_hal_Timer_TimerProxy_getPeriod__E)
                  c3750d60    00000020     dsp_pe674.oe674 (.text:ti_sysbios_hal_Timer_TimerProxy_setNextTick__E)
                  c3750d80    00000020     dsp_pe674.oe674 (.text:ti_sysbios_hal_Timer_TimerProxy_startup__E)
                  c3750da0    00000020     sysbios.ae674 : BIOS.obj (.text:ti_sysbios_hal_Timer_startup__E)
                  c3750dc0    00000020     dsp_pe674.oe674 (.text:ti_sysbios_heaps_HeapMem_Module_GateProxy_enter__E)
                  c3750de0    00000020     dsp_pe674.oe674 (.text:ti_sysbios_heaps_HeapMem_Module_GateProxy_leave__E)
                  c3750e00    00000020     dsp_pe674.oe674 (.text:ti_sysbios_heaps_HeapMem_Module_GateProxy_query__E)
                  c3750e20    00000020     sysbios.ae674 : BIOS.obj (.text:ti_sysbios_heaps_HeapMem_isBlocking__E)
                  c3750e40    00000020     dsp_pe674.oe674 (.text:ti_sysbios_knl_Clock_Module_startup__E)
                  c3750e60    00000020     sysbios.ae674 : BIOS.obj (.text:ti_sysbios_knl_Clock_logTick__E)
                  c3750e80    00000020                   : BIOS.obj (.text:ti_sysbios_knl_Idle_loop__E)
                  c3750ea0    00000020                   : BIOS.obj (.text:ti_sysbios_knl_Queue_Instance_init__F)
                  c3750ec0    00000020     dsp_pe674.oe674 (.text:ti_sysbios_knl_Queue_Object__destruct__S)
                  c3750ee0    00000020     dsp_pe674.oe674 (.text:ti_sysbios_knl_Queue_Object__get__S)
                  c3750f00    00000020     sysbios.ae674 : BIOS.obj (.text:ti_sysbios_knl_Queue_empty__E)
                  c3750f20    00000020                   : BIOS.obj (.text:ti_sysbios_knl_Semaphore_Instance_finalize__F)
                  c3750f40    00000020     dsp_pe674.oe674 (.text:ti_sysbios_knl_Semaphore_Params__init__S)
                  c3750f60    00000020     sysbios.ae674 : BIOS.obj (.text:ti_sysbios_knl_Swi_Instance_finalize__F)
                  c3750f80    00000020     dsp_pe674.oe674 (.text:ti_sysbios_knl_Swi_Module_startup__E)
                  c3750fa0    00000020     dsp_pe674.oe674 (.text:ti_sysbios_knl_Swi_Params__init__S)
                  c3750fc0    00000020     sysbios.ae674 : BIOS.obj (.text:ti_sysbios_knl_Swi_disable__E)
                  c3750fe0    00000020                   : BIOS.obj (.text:ti_sysbios_knl_Swi_startup__E)
                  c3751000    00000020     dsp_pe674.oe674 (.text:ti_sysbios_knl_Task_Module_startup__E)
                  c3751020    00000020     dsp_pe674.oe674 (.text:ti_sysbios_knl_Task_Object__first__S)
                  c3751040    00000020     dsp_pe674.oe674 (.text:ti_sysbios_knl_Task_Object__next__S)
                  c3751060    00000020     dsp_pe674.oe674 (.text:ti_sysbios_knl_Task_Params__init__S)
                  c3751080    00000020     dsp_pe674.oe674 (.text:ti_sysbios_knl_Task_SupportProxy_Module__startupDone__S)
                  c37510a0    00000020     dsp_pe674.oe674 (.text:ti_sysbios_knl_Task_SupportProxy_checkStack__E)
                  c37510c0    00000020     dsp_pe674.oe674 (.text:ti_sysbios_knl_Task_SupportProxy_getStackAlignment__E)
                  c37510e0    00000020     dsp_pe674.oe674 (.text:ti_sysbios_knl_Task_SupportProxy_start__E)
                  c3751100    00000020     dsp_pe674.oe674 (.text:ti_sysbios_knl_Task_SupportProxy_swap__E)
                  c3751120    00000020     sysbios.ae674 : BIOS.obj (.text:ti_sysbios_knl_Task_disable__E)
                  c3751140    00000020                   : BIOS.obj (.text:ti_sysbios_knl_Task_getPri__E)
                  c3751160    00000020                   : BIOS.obj (.text:ti_sysbios_knl_Task_self__E)
                  c3751180    00000020                   : BIOS.obj (.text:ti_sysbios_knl_Task_startup__E)
                  c37511a0    00000020     dsp_pe674.oe674 (.text:ti_sysbios_timers_timer64_Timer_Module__startupDone__S)
                  c37511c0    00000020     dsp_pe674.oe674 (.text:ti_sysbios_timers_timer64_Timer_Module_startup__E)
                  c37511e0    00000020     dsp_pe674.oe674 (.text:ti_sysbios_timers_timer64_Timer_TimerSupportProxy_enable__E)
                  c3751200    00000020     sysbios.ae674 : BIOS.obj (.text:ti_sysbios_timers_timer64_Timer_setNextTick__E)
                  c3751220    00000020                   : BIOS.obj (.text:ti_sysbios_xdcruntime_GateThreadSupport_Instance_finalize__F)
                  c3751240    00000020     dsp_pe674.oe674 (.text:ti_sysbios_xdcruntime_GateThreadSupport_enter__E)
                  c3751260    00000020     sysbios.ae674 : BIOS.obj (.text:ti_sysbios_xdcruntime_GateThreadSupport_enter__F)
                  c3751280    00000020     dsp_pe674.oe674 (.text:ti_sysbios_xdcruntime_GateThreadSupport_leave__E)
                  c37512a0    00000020     sysbios.ae674 : BIOS.obj (.text:ti_sysbios_xdcruntime_GateThreadSupport_leave__F)
                  c37512c0    00000020     dsp_pe674.oe674 (.text:ti_sysbios_xdcruntime_GateThreadSupport_query__E)
                  c37512e0    00000020     sysbios.ae674 : BIOS.obj (.text:ti_sysbios_xdcruntime_GateThreadSupport_query__F)
                  c3751300    00000020     dsp_pe674.oe674 (.text:xdc_runtime_Error_check__E)
                  c3751320    00000020     dsp_pe674.oe674 (.text:xdc_runtime_Error_init__E)
                  c3751340    00000020     dsp_pe674.oe674 (.text:xdc_runtime_Error_print__E)
                  c3751360    00000020     dsp_pe674.oe674 (.text:xdc_runtime_Error_raiseX__E)
                  c3751380    00000020     dsp_pe674.oe674 (.text:xdc_runtime_GateNull_enter__E)
                  c37513a0    00000020     ti.targets.rts6000.ae674 : GateNull.oe674 (.text:xdc_runtime_GateNull_enter__F)
                  c37513c0    00000020     dsp_pe674.oe674 (.text:xdc_runtime_GateNull_leave__E)
                  c37513e0    00000020     ti.targets.rts6000.ae674 : GateNull.oe674 (.text:xdc_runtime_GateNull_leave__F)
                  c3751400    00000020     dsp_pe674.oe674 (.text:xdc_runtime_GateNull_query__E)
                  c3751420    00000020     ti.targets.rts6000.ae674 : GateNull.oe674 (.text:xdc_runtime_GateNull_query__F)
                  c3751440    00000020     dsp_pe674.oe674 (.text:xdc_runtime_Gate_enterSystem__E)
                  c3751460    00000020     ti.targets.rts6000.ae674 : Gate.oe674 (.text:xdc_runtime_Gate_enterSystem__F)
                  c3751480    00000020     dsp_pe674.oe674 (.text:xdc_runtime_Gate_leaveSystem__E)
                  c37514a0    00000020     ti.targets.rts6000.ae674 : Gate.oe674 (.text:xdc_runtime_Gate_leaveSystem__F)
                  c37514c0    00000020     ti.syslink.ipc.rtos.ae674 : FrameQBufMgr_ShMem.oe674 (.text:xdc_runtime_IGateProvider_enter)
                  c37514e0    00000020                               : FrameQ_ShMem.oe674 (.text:xdc_runtime_IGateProvider_enter)
                  c3751500    00000020                               : FrameQ_ShMem.oe674 (.text:xdc_runtime_IGateProvider_leave)
                  c3751520    00000020     dsp_pe674.oe674 (.text:xdc_runtime_IHeap_alloc)
                  c3751540    00000020     dsp_pe674.oe674 (.text:xdc_runtime_IHeap_free)
                  c3751560    00000020     dsp_pe674.oe674 (.text:xdc_runtime_LoggerBuf_Module_GateProxy_enter__E)
                  c3751580    00000020     dsp_pe674.oe674 (.text:xdc_runtime_LoggerBuf_Module_GateProxy_leave__E)
                  c37515a0    00000020     dsp_pe674.oe674 (.text:xdc_runtime_LoggerBuf_Module_startup__E)
                  c37515c0    00000020     dsp_pe674.oe674 (.text:xdc_runtime_LoggerBuf_TimestampProxy_get64__E)
                  c37515e0    00000020     dsp_pe674.oe674 (.text:xdc_runtime_LoggerBuf_disable__E)
                  c3751600    00000020     ti.targets.rts6000.ae674 : LoggerBuf.oe674 (.text:xdc_runtime_LoggerBuf_disable__F)
                  c3751620    00000020     dsp_pe674.oe674 (.text:xdc_runtime_LoggerBuf_enable__E)
                  c3751640    00000020     ti.targets.rts6000.ae674 : LoggerBuf.oe674 (.text:xdc_runtime_LoggerBuf_enable__F)
                  c3751660    00000020     dsp_pe674.oe674 (.text:xdc_runtime_LoggerBuf_getFilterLevel__E)
                  c3751680    00000020     dsp_pe674.oe674 (.text:xdc_runtime_LoggerBuf_setFilterLevel__E)
                  c37516a0    00000020     dsp_pe674.oe674 (.text:xdc_runtime_LoggerBuf_write0__E)
                  c37516c0    00000020     dsp_pe674.oe674 (.text:xdc_runtime_LoggerBuf_write1__E)
                  c37516e0    00000020     ti.targets.rts6000.ae674 : LoggerBuf.oe674 (.text:xdc_runtime_LoggerBuf_write1__F)
                  c3751700    00000020     dsp_pe674.oe674 (.text:xdc_runtime_LoggerBuf_write2__E)
                  c3751720    00000020     ti.targets.rts6000.ae674 : LoggerBuf.oe674 (.text:xdc_runtime_LoggerBuf_write2__F)
                  c3751740    00000020     dsp_pe674.oe674 (.text:xdc_runtime_LoggerBuf_write4__E)
                  c3751760    00000020     dsp_pe674.oe674 (.text:xdc_runtime_Memory_HeapProxy_alloc__E)
                  c3751780    00000020     dsp_pe674.oe674 (.text:xdc_runtime_Memory_HeapProxy_free__E)
                  c37517a0    00000020     dsp_pe674.oe674 (.text:xdc_runtime_Memory_alloc__E)
                  c37517c0    00000020     dsp_pe674.oe674 (.text:xdc_runtime_Memory_calloc__E)
                  c37517e0    00000020     dsp_pe674.oe674 (.text:xdc_runtime_Memory_free__E)
                  c3751800    00000020     dsp_pe674.oe674 (.text:xdc_runtime_Memory_getMaxDefaultTypeAlign__E)
                  c3751820    00000020     ti.targets.rts6000.ae674 : Memory.oe674 (.text:xdc_runtime_Memory_getMaxDefaultTypeAlign__F)
                  c3751840    00000020     dsp_pe674.oe674 (.text:xdc_runtime_Memory_valloc__E)
                  c3751860    00000020     dsp_pe674.oe674 (.text:xdc_runtime_Startup_Module__startupDone__S)
                  c3751880    00000020     dsp_pe674.oe674 (.text:xdc_runtime_Startup_exec__E)
                  c37518a0    00000020     dsp_pe674.oe674 (.text:xdc_runtime_Startup_exec__I)
                  c37518c0    00000020     dsp_pe674.oe674 (.text:xdc_runtime_Startup_reset__I)
                  c37518e0    00000020     dsp_pe674.oe674 (.text:xdc_runtime_SysMin_Module_startup__E)
                  c3751900    00000020     dsp_pe674.oe674 (.text:xdc_runtime_SysMin_abort__E)
                  c3751920    00000020     dsp_pe674.oe674 (.text:xdc_runtime_SysMin_exit__E)
                  c3751940    00000020     dsp_pe674.oe674 (.text:xdc_runtime_SysMin_putch__E)
                  c3751960    00000020     dsp_pe674.oe674 (.text:xdc_runtime_SysMin_ready__E)
                  c3751980    00000020     ti.targets.rts6000.ae674 : SysMin.oe674 (.text:xdc_runtime_SysMin_ready__F)
                  c37519a0    00000020     dsp_pe674.oe674 (.text:xdc_runtime_System_Module_GateProxy_enter__E)
                  c37519c0    00000020     dsp_pe674.oe674 (.text:xdc_runtime_System_Module_GateProxy_leave__E)
                  c37519e0    00000020     dsp_pe674.oe674 (.text:xdc_runtime_System_Module_startup__E)
                  c3751a00    00000020     ti.targets.rts6000.ae674 : System.oe674 (.text:xdc_runtime_System_Module_startup__F)
                  c3751a20    00000020     dsp_pe674.oe674 (.text:xdc_runtime_System_SupportProxy_abort__E)
                  c3751a40    00000020     dsp_pe674.oe674 (.text:xdc_runtime_System_SupportProxy_exit__E)
                  c3751a60    00000020     dsp_pe674.oe674 (.text:xdc_runtime_System_SupportProxy_putch__E)
                  c3751a80    00000020     dsp_pe674.oe674 (.text:xdc_runtime_System_SupportProxy_ready__E)
                  c3751aa0    00000020     dsp_pe674.oe674 (.text:xdc_runtime_System_abort__E)
                  c3751ac0    00000020     dsp_pe674.oe674 (.text:xdc_runtime_System_atexit__E)
                  c3751ae0    00000020     dsp_pe674.oe674 (.text:xdc_runtime_System_exit__E)
                  c3751b00    00000020     ti.targets.rts6000.ae674 : System.oe674 (.text:xdc_runtime_System_exit__F)
                  c3751b20    00000020                              : System.oe674 (.text:xdc_runtime_System_lastFxn__I)
                  c3751b40    00000020     dsp_pe674.oe674 (.text:xdc_runtime_System_vsnprintf__E)
                  c3751b60    00000020     ti.targets.rts6000.ae674 : System.oe674 (.text:xdc_runtime_System_vsnprintf__F)
                  c3751b80    00000020     dsp_pe674.oe674 (.text:xdc_runtime_Text_cordText__E)
                  c3751ba0    00000020     dsp_pe674.oe674 (.text:xdc_runtime_Text_putLab__E)
                  c3751bc0    00000020     dsp_pe674.oe674 (.text:xdc_runtime_Text_putSite__E)
                  c3751be0    00000020     dsp_pe674.oe674 (.text:xdc_runtime_Text_ropeText__E)
                  c3751c00    00000020     dsp_pe674.oe674 (.text:xdc_runtime_Text_visitRope__I)
                  c3751c20    00000020     dsp_pe674.oe674 (.text:xdc_runtime_knl_GateThread_Module__startupDone__S)
                  c3751c40    00000020     dsp_pe674.oe674 (.text:xdc_runtime_knl_GateThread_Proxy_Object__create__S)
                  c3751c60    00000020     dsp_pe674.oe674 (.text:xdc_runtime_knl_GateThread_Proxy_Object__delete__S)
                  c3751c80    00000020     dsp_pe674.oe674 (.text:xdc_runtime_knl_GateThread_Proxy_enter__E)
                  c3751ca0    00000020     dsp_pe674.oe674 (.text:xdc_runtime_knl_GateThread_Proxy_leave__E)
                  c3751cc0    00000020     dsp_pe674.oe674 (.text:xdc_runtime_knl_GateThread_Proxy_query__E)
                  c3751ce0    00000020     dsp_pe674.oe674 (.text:xdc_runtime_knl_GateThread_enter__E)
                  c3751d00    00000020     ti.targets.rts6000.ae674 : GateThread.oe674 (.text:xdc_runtime_knl_GateThread_enter__F)
                  c3751d20    00000020     dsp_pe674.oe674 (.text:xdc_runtime_knl_GateThread_leave__E)
                  c3751d40    00000020     ti.targets.rts6000.ae674 : GateThread.oe674 (.text:xdc_runtime_knl_GateThread_leave__F)
                  c3751d60    00000020     dsp_pe674.oe674 (.text:xdc_runtime_knl_GateThread_query__E)
                  c3751d80    00000020     ti.targets.rts6000.ae674 : GateThread.oe674 (.text:xdc_runtime_knl_GateThread_query__F)

.fardata.2 
*          0    c3751da0    00030814     
                  c3751da0    0002ea64     ti.syslink.ipc.rtos.ae674 : ClientNotifyMgr.oe674 (.fardata)
                  c3780804    0000080c                               : FrameQBufMgr_ShMem.oe674 (.fardata)
                  c3781010    00000800     dsp_pe674.oe674 (.fardata:ti_sdo_ipc_GateMP_Module_State_0_remoteSystemGates__A)
                  c3781810    000003f4     dsp_pe674.oe674 (.fardata)
                  c3781c04    0000024c     ti.syslink.ipc.rtos.ae674 : FrameQBufMgr.oe674 (.fardata)
                  c3781e50    000000e0     dsp_pe674.oe674 (.fardata:ti_sdo_utils_NameServer_Object__table__V)
                  c3781f30    000000dc     ti.syslink.ipc.rtos.ae674 : FrameQ_ShMem.oe674 (.fardata)
                  c378200c    00000004     rts6740_elf.lib : dtor_list.obj (.fardata)
                  c3782010    00000090     dsp_pe674.oe674 (.fardata:ti_sdo_ipc_SharedRegion_Module_State_0_regions__A)
                  c37820a0    00000080     dsp_pe674.oe674 (.fardata:ti_sysbios_knl_Swi_Module_State_0_readyQ__A)
                  c3782120    00000080     dsp_pe674.oe674 (.fardata:ti_sysbios_knl_Task_Module_State_0_readyQ__A)
                  c37821a0    00000060     dsp_pe674.oe674 (.fardata:ti_sysbios_timers_timer64_Timer_Module_State_0_device__A)
                  c3782200    0000004c     dsp_pe674.oe674 (.fardata:ti_sysbios_knl_Task_Object__table__V)
                  c378224c    00000004     --HOLE-- [fill = 0]
                  c3782250    0000004c     dsp_pe674.oe674 (.fardata:ti_sysbios_timers_timer64_Timer_Object__table__V)
                  c378229c    00000044     ti.syslink.ipc.rtos.ae674 : FrameQ.oe674 (.fardata)
                  c37822e0    00000040                               : RingIOShm.oe674 (.fardata)
                  c3782320    00000040     dsp_pe674.oe674 (.fardata:ti_sysbios_gates_GateMutex_Object__table__V)
                  c3782360    00000030     dsp_pe674.oe674 (.fardata:ti_sysbios_knl_Swi_Object__table__V)
                  c3782390    00000028     dsp_pe674.oe674 (.fardata:ti_sdo_ipc_Ipc_Module_State_0_procEntry__A)
                  c37823b8    00000024     dsp_pe674.oe674 (.fardata:xdc_runtime_LoggerBuf_Object__table__V)
                  c37823dc    00000004     --HOLE-- [fill = 0]
                  c37823e0    00000020     dsp_pe674.oe674 (.fardata:ti_sdo_ipc_MessageQ_Module_State_0_heaps__A)
                  c3782400    00000020     dsp_pe674.oe674 (.fardata:ti_sysbios_timers_timer64_Timer_Module_State_0_gctrl__A)
                  c3782420    00000020     dsp_pe674.oe674 (.fardata:ti_sysbios_timers_timer64_Timer_Module_State_0_handles__A)
                  c3782440    00000020     dsp_pe674.oe674 (.fardata:ti_sysbios_timers_timer64_Timer_Module_State_0_intFreqs__A)
                  c3782460    00000020     dsp_pe674.oe674 (.fardata:xdc_runtime_System_Module_State_0_atexitHandlers__A)
                  c3782480    0000001c     ti.syslink.ipc.rtos.ae674 : RingIO.oe674 (.fardata)
                  c378249c    0000001c                               : SharedMemoryMgr.oe674 (.fardata)
                  c37824b8    0000001c                               : TilerMemoryMgr.oe674 (.fardata)
                  c37824d4    00000004     --HOLE-- [fill = 0]
                  c37824d8    00000018     dsp_pe674.oe674 (.fardata:ti_sysbios_family_c64p_Hwi_Object__table__V)
                  c37824f0    00000018     dsp_pe674.oe674 (.fardata:ti_sysbios_gates_GateMutexPri_Object__table__V)
                  c3782508    00000018     dsp_pe674.oe674 (.fardata:ti_sysbios_heaps_HeapMem_Object__table__V)
                  c3782520    00000010     dsp_pe674.oe674 (.fardata:ti_sysbios_gates_GateAll_Object__table__V)
                  c3782530    0000000c     rts6740_elf.lib : exit.obj (.fardata)
                  c378253c    0000000c     ti.syslink.ipc.rtos.ae674 : SysLinkCfg.oe674 (.fardata)
                  c3782548    0000000c     dsp_pe674.oe674 (.fardata:ti_sysbios_gates_GateSwi_Object__table__V)
                  c3782554    00000008     rts6740_elf.lib : _lock.obj (.fardata)
                  c378255c    00000004     --HOLE-- [fill = 0]
                  c3782560    00000008     dsp_pe674.oe674 (.fardata:ti_sdo_ipc_Notify_Module_State_0_notifyHandles__A)
                  c3782568    00000008     dsp_pe674.oe674 (.fardata:ti_sdo_ipc_transports_TransportShmSetup_Module_State_0_handles__A)
                  c3782570    00000008     dsp_pe674.oe674 (.fardata:ti_sysbios_family_c64p_primus_TimerSupport_Module_State_0_suspSrc__A)
                  c3782578    00000008     dsp_pe674.oe674 (.fardata:ti_sysbios_hal_Hwi_Object__table__V)
                  c3782580    00000008     dsp_pe674.oe674 (.fardata:ti_sysbios_hal_Timer_Object__table__V)
                  c3782588    00000004     dsp_pe674.oe674 (.fardata:ti_sdo_ipc_GateMP_Module_State_0_remoteCustom2Gates__A)
                  c378258c    00000004     --HOLE-- [fill = 0]
                  c3782590    00000004     dsp_pe674.oe674 (.fardata:ti_sdo_ipc_Notify_Module_State_0_notifyHandles_0__A)
                  c3782594    00000004     --HOLE-- [fill = 0]
                  c3782598    00000004     dsp_pe674.oe674 (.fardata:ti_sdo_ipc_Notify_Module_State_0_notifyHandles_1__A)
                  c378259c    00000004     --HOLE-- [fill = 0]
                  c37825a0    00000004     dsp_pe674.oe674 (.fardata:ti_sysbios_gates_GateHwi_Object__table__V)
                  c37825a4    00000004     --HOLE-- [fill = 0]
                  c37825a8    00000004     dsp_pe674.oe674 (.fardata:ti_sysbios_knl_Task_Module_State_0_idleTask__A)
                  c37825ac    00000004     --HOLE-- [fill = 0]
                  c37825b0    00000004     dsp_pe674.oe674 (.fardata:xdc_runtime_GateNull_Object__table__V)

.const     0    c37825b8    00004964     
                  c37825b8    00002ac8     dsp_pe674.oe674 (.const:xdc_runtime_Text_charTab__A)
                  c3785080    00000683     sysbios.ae674 : BIOS.obj (.const:.string)
                  c3785703    00000001     ti.syslink.ipc.rtos.ae674 : SharedMemoryMgr.oe674 (.const:.string)
                  c3785704    00000004     ti.targets.rts6000.ae674 : Assert.oe674 (.const:.string)
                  c3785708    00000200     ti.syslink.ipc.rtos.ae674 : FrameQ_ShMem.oe674 (.const:$P$T0$1)
                  c3785908    000001f4     syslink_service.oe674 (.const:.string)
                  c3785afc    000001a8     syslink.oe674 (.const:.string)
                  c3785ca4    00000004     dsp_pe674.oe674 (.const:ti_sdo_ipc_GateMP_E_gateUnavailable__C)
                  c3785ca8    00000164     dsp_pe674.oe674 (.const:xdc_runtime_Text_nodeTab__A)
                  c3785e0c    00000118     resource_sync.oe674 (.const:.string)
                  c3785f24    0000008b     dsp_pe674.oe674 (.const:.string)
                  c3785faf    0000007d     ti.syslink.ipc.rtos.ae674 : _Syslink.oe674 (.const:.string)
                  c378602c    00000058     ti.targets.rts6000.ae674 : Error.oe674 (.const:.string)
                  c3786084    00000040                              : Text.oe674 (.const:.string)
                  c37860c4    00000004     dsp_pe674.oe674 (.const:ti_sdo_ipc_GateMP_E_localGate__C)
                  c37860c8    00000040     dsp_pe674.oe674 (.const:xdc_runtime_Startup_sfxnTab__A)
                  c3786108    0000003c     dsp_pe674.oe674 (.const:ti_sysbios_knl_Task_Object__PARAMS__C)
                  c3786144    0000003c     dsp_pe674.oe674 (.const:xdc_runtime_LoggerBuf_Module__FXNS__C)
                  c3786180    00000038     dsp_pe674.oe674 (.const:ti_sdo_ipc_notifyDrivers_NotifyDriverShm_Module__FXNS__C)
                  c37861b8    00000034     dsp_pe674.oe674 (.const:ti_sdo_ipc_GateMP_Object__PARAMS__C)
                  c37861ec    00000034     dsp_pe674.oe674 (.const:ti_sdo_ipc_notifyDrivers_NotifyDriverShm_Object__PARAMS__C)
                  c3786220    00000030     dsp_pe674.oe674 (.const:ti_sdo_ipc_heaps_HeapMemMP_Object__PARAMS__C)
                  c3786250    00000030     dsp_pe674.oe674 (.const:ti_sysbios_family_c64p_Hwi_Object__PARAMS__C)
                  c3786280    0000002c     ti.targets.rts6000.ae674 : Startup.oe674 (.const:.string)
                  c37862ac    0000002c     dsp_pe674.oe674 (.const:ti_sdo_ipc_ListMP_Object__PARAMS__C)
                  c37862d8    0000002c     dsp_pe674.oe674 (.const:ti_sdo_ipc_gates_GateMPSupportNull_Module__FXNS__C)
                  c3786304    0000002c     dsp_pe674.oe674 (.const:ti_sdo_ipc_gates_GatePeterson_Module__FXNS__C)
                  c3786330    0000002c     dsp_pe674.oe674 (.const:ti_sdo_utils_NameServer_Object__PARAMS__C)
                  c378635c    00000028     dsp_pe674.oe674 (.const:ti_sdo_ipc_heaps_HeapMemMP_Module__FXNS__C)
                  c3786384    00000028     dsp_pe674.oe674 (.const:ti_sdo_ipc_nsremote_NameServerRemoteNotify_Module__FXNS__C)
                  c37863ac    00000028     dsp_pe674.oe674 (.const:ti_sdo_ipc_transports_TransportShm_Module__FXNS__C)
                  c37863d4    00000028     dsp_pe674.oe674 (.const:ti_sdo_ipc_transports_TransportShm_Object__PARAMS__C)
                  c37863fc    00000028     dsp_pe674.oe674 (.const:ti_sysbios_heaps_HeapMem_Module__FXNS__C)
                  c3786424    00000028     dsp_pe674.oe674 (.const:ti_sysbios_knl_Swi_Object__PARAMS__C)
                  c378644c    00000028     dsp_pe674.oe674 (.const:xdc_runtime_LoggerBuf_Object__PARAMS__C)
                  c3786474    00000024     server.oe674 (.const:.string)
                  c3786498    00000024     dsp_pe674.oe674 (.const:ti_sdo_ipc_gates_GateMPSupportNull_Object__PARAMS__C)
                  c37864bc    00000024     dsp_pe674.oe674 (.const:ti_sdo_ipc_gates_GatePeterson_Object__PARAMS__C)
                  c37864e0    00000024     dsp_pe674.oe674 (.const:ti_sysbios_gates_GateAll_Module__FXNS__C)
                  c3786504    00000024     dsp_pe674.oe674 (.const:ti_sysbios_gates_GateHwi_Module__FXNS__C)
                  c3786528    00000024     dsp_pe674.oe674 (.const:ti_sysbios_gates_GateMutexPri_Module__FXNS__C)
                  c378654c    00000024     dsp_pe674.oe674 (.const:ti_sysbios_gates_GateMutex_Module__FXNS__C)
                  c3786570    00000024     dsp_pe674.oe674 (.const:ti_sysbios_gates_GateSwi_Module__FXNS__C)
                  c3786594    00000024     dsp_pe674.oe674 (.const:ti_sysbios_heaps_HeapMem_Object__PARAMS__C)
                  c37865b8    00000024     dsp_pe674.oe674 (.const:ti_sysbios_knl_Semaphore_Object__PARAMS__C)
                  c37865dc    00000024     dsp_pe674.oe674 (.const:xdc_runtime_GateNull_Module__FXNS__C)
                  c3786600    00000024     dsp_pe674.oe674 (.const:xdc_runtime_knl_GateThread_Module__FXNS__C)
                  c3786624    00000020     dsp_pe674.oe674 (.const:ti_sdo_ipc_GateMP_Object__DESC__C)
                  c3786644    00000020     dsp_pe674.oe674 (.const:ti_sdo_ipc_ListMP_Object__DESC__C)
                  c3786664    00000020     dsp_pe674.oe674 (.const:ti_sdo_ipc_Notify_Object__DESC__C)
                  c3786684    00000020     dsp_pe674.oe674 (.const:ti_sdo_ipc_gates_GateMPSupportNull_Object__DESC__C)
                  c37866a4    00000020     dsp_pe674.oe674 (.const:ti_sdo_ipc_gates_GatePeterson_Object__DESC__C)
                  c37866c4    00000020     dsp_pe674.oe674 (.const:ti_sdo_ipc_heaps_HeapMemMP_Object__DESC__C)
                  c37866e4    00000020     dsp_pe674.oe674 (.const:ti_sdo_ipc_notifyDrivers_NotifyDriverShm_Object__DESC__C)
                  c3786704    00000020     dsp_pe674.oe674 (.const:ti_sdo_ipc_nsremote_NameServerRemoteNotify_Object__DESC__C)
                  c3786724    00000020     dsp_pe674.oe674 (.const:ti_sdo_ipc_nsremote_NameServerRemoteNotify_Object__PARAMS__C)
                  c3786744    00000020     dsp_pe674.oe674 (.const:ti_sdo_ipc_transports_TransportShm_Object__DESC__C)
                  c3786764    00000020     dsp_pe674.oe674 (.const:ti_sdo_utils_List_Object__DESC__C)
                  c3786784    00000020     dsp_pe674.oe674 (.const:ti_sdo_utils_NameServer_Object__DESC__C)
                  c37867a4    00000020     dsp_pe674.oe674 (.const:ti_sysbios_family_c64p_Hwi_Object__DESC__C)
                  c37867c4    00000020     dsp_pe674.oe674 (.const:ti_sysbios_gates_GateAll_Object__DESC__C)
                  c37867e4    00000020     dsp_pe674.oe674 (.const:ti_sysbios_gates_GateHwi_Object__DESC__C)
                  c3786804    00000020     dsp_pe674.oe674 (.const:ti_sysbios_gates_GateMutexPri_Object__DESC__C)
                  c3786824    00000020     dsp_pe674.oe674 (.const:ti_sysbios_gates_GateMutex_Object__DESC__C)
                  c3786844    00000020     dsp_pe674.oe674 (.const:ti_sysbios_gates_GateSwi_Object__DESC__C)
                  c3786864    00000020     dsp_pe674.oe674 (.const:ti_sysbios_heaps_HeapMem_Object__DESC__C)
                  c3786884    00000020     dsp_pe674.oe674 (.const:ti_sysbios_knl_Queue_Object__DESC__C)
                  c37868a4    00000020     dsp_pe674.oe674 (.const:ti_sysbios_knl_Semaphore_Object__DESC__C)
                  c37868c4    00000020     dsp_pe674.oe674 (.const:ti_sysbios_knl_Swi_Object__DESC__C)
                  c37868e4    00000020     dsp_pe674.oe674 (.const:ti_sysbios_knl_Task_Object__DESC__C)
                  c3786904    00000020     dsp_pe674.oe674 (.const:ti_sysbios_xdcruntime_GateThreadSupport_Object__DESC__C)
                  c3786924    00000020     dsp_pe674.oe674 (.const:xdc_runtime_GateNull_Object__DESC__C)
                  c3786944    00000020     dsp_pe674.oe674 (.const:xdc_runtime_LoggerBuf_Object__DESC__C)
                  c3786964    00000004     dsp_pe674.oe674 (.const:ti_sdo_ipc_Ipc_E_internal__C)
                  c3786968    00000020     dsp_pe674.oe674 (.const:xdc_runtime_Startup_sfxnRts__A)
                  c3786988    00000020     dsp_pe674.oe674 (.const:xdc_runtime_knl_GateThread_Object__DESC__C)
                  c37869a8    0000001b     resource_sync.oe674 (.const:.string:__func__$2)
                  c37869c3    00000019     utils.lib : uartStdio.obj (.const:.string)
                  c37869dc    00000004     dsp_pe674.oe674 (.const:ti_sdo_ipc_Ipc_E_nameFailed__C)
                  c37869e0    00000018     resource_sync.oe674 (.const:.string:__func__$3)
                  c37869f8    00000018     syslink_service.oe674 (.const:.string:__func__$3)
                  c3786a10    00000018     syslink_service.oe674 (.const:.string:__func__$4)
                  c3786a28    00000018     dsp_pe674.oe674 (.const:ti_sdo_ipc_Notify_Object__PARAMS__C)
                  c3786a40    00000018     dsp_pe674.oe674 (.const:ti_sdo_utils_List_Object__PARAMS__C)
                  c3786a58    00000018     dsp_pe674.oe674 (.const:ti_sysbios_gates_GateAll_Object__PARAMS__C)
                  c3786a70    00000018     dsp_pe674.oe674 (.const:ti_sysbios_gates_GateHwi_Object__PARAMS__C)
                  c3786a88    00000018     dsp_pe674.oe674 (.const:ti_sysbios_gates_GateMutexPri_Object__PARAMS__C)
                  c3786aa0    00000018     dsp_pe674.oe674 (.const:ti_sysbios_gates_GateMutex_Object__PARAMS__C)
                  c3786ab8    00000018     dsp_pe674.oe674 (.const:ti_sysbios_gates_GateSwi_Object__PARAMS__C)
                  c3786ad0    00000018     dsp_pe674.oe674 (.const:ti_sysbios_knl_Queue_Object__PARAMS__C)
                  c3786ae8    00000018     dsp_pe674.oe674 (.const:ti_sysbios_knl_Task_hooks__A)
                  c3786b00    00000018     dsp_pe674.oe674 (.const:ti_sysbios_xdcruntime_GateThreadSupport_Object__PARAMS__C)
                  c3786b18    00000018     dsp_pe674.oe674 (.const:xdc_runtime_GateNull_Object__PARAMS__C)
                  c3786b30    00000018     dsp_pe674.oe674 (.const:xdc_runtime_knl_GateThread_Object__PARAMS__C)
                  c3786b48    00000016     syslink_service.oe674 (.const:.string:__func__$1)
                  c3786b5e    00000002     dsp_pe674.oe674 (.const:ti_sdo_ipc_GateMP_Module__id__C)
                  c3786b60    00000014     syslink_service.oe674 (.const:.string:__func__$2)
                  c3786b74    00000004     dsp_pe674.oe674 (.const:ti_sdo_ipc_Ipc_E_versionMismatch__C)
                  c3786b78    00000013     syslink.oe674 (.const:.string:__func__$3)
                  c3786b8b    00000001     ti.syslink.ipc.rtos.ae674 : TilerMemoryMgr.oe674 (.const:.string)
                  c3786b8c    00000004     dsp_pe674.oe674 (.const:ti_sdo_ipc_Ipc_numUserFxns__C)
                  c3786b90    00000013     resource_sync.oe674 (.const:.string:__func__$4)
                  c3786ba3    00000001     --HOLE-- [fill = 0]
                  c3786ba4    00000004     dsp_pe674.oe674 (.const:ti_sdo_ipc_Ipc_procSync__C)
                  c3786ba8    00000013     resource_sync.oe674 (.const:.string:__func__$5)
                  c3786bbb    00000001     --HOLE-- [fill = 0]
                  c3786bbc    00000004     dsp_pe674.oe674 (.const:ti_sdo_ipc_Ipc_userFxns__C)
                  c3786bc0    00000012     resource_sync.oe674 (.const:.string:__func__$1)
                  c3786bd2    00000002     dsp_pe674.oe674 (.const:ti_sdo_ipc_Ipc_generateSlaveDataForHost__C)
                  c3786bd4    00000004     dsp_pe674.oe674 (.const:ti_sdo_ipc_MessageQ_Instance_State_highList__O)
                  c3786bd8    00000011     syslink.oe674 (.const:.string:__func__$2)
                  c3786be9    00000007     ti.syslink.ipc.rtos.ae674 : FrameQ.oe674 (.const:.string)
                  c3786bf0    00000011     syslink.oe674 (.const:.string:__func__$4)
                  c3786c01    00000001     --HOLE-- [fill = 0]
                  c3786c02    00000002     dsp_pe674.oe674 (.const:ti_sdo_ipc_Ipc_sr0MemorySetup__C)
                  c3786c04    00000004     dsp_pe674.oe674 (.const:ti_sdo_ipc_MessageQ_Instance_State_normalList__O)
                  c3786c08    00000011     ti.targets.rts6000.ae674 : System.oe674 (.const:digtohex)
                  c3786c19    00000001     --HOLE-- [fill = 0]
                  c3786c1a    00000002     dsp_pe674.oe674 (.const:ti_sdo_ipc_ListMP_Module__id__C)
                  c3786c1c    00000004     dsp_pe674.oe674 (.const:ti_sdo_ipc_MessageQ_Object__count__C)
                  c3786c20    00000010     syslink.oe674 (.const:.string:__func__$5)
                  c3786c30    00000010     ti.syslink.ipc.rtos.ae674 : ClientNotifyMgr.oe674 (.const:.string)
                  c3786c40    0000000e                               : RingIO.oe674 (.const:.string)
                  c3786c4e    0000000d                               : FrameQBufMgr.oe674 (.const:.string)
                  c3786c5b    00000001     --HOLE-- [fill = 0]
                  c3786c5c    00000004     dsp_pe674.oe674 (.const:ti_sdo_ipc_Notify_Module__gateObj__C)
                  c3786c60    0000000c     syslink.oe674 (.const:.string:__func__$1)
                  c3786c6c    00000004     dsp_pe674.oe674 (.const:ti_sdo_ipc_Notify_Object__heap__C)
                  c3786c70    0000000c     dsp_pe674.oe674 (.const:ti_sdo_ipc_Ipc_userFxns__A)
                  c3786c7c    0000000c     dsp_pe674.oe674 (.const:ti_sysbios_family_c64p_Cache_initSize__C)
                  c3786c88    00000008     ti.targets.rts6000.ae674 : System.oe674 (.const:.string)
                  c3786c90    00000008     dsp_pe674.oe674 (.const:ti_sdo_utils_MultiProc_nameList__A)
                  c3786c98    00000008     dsp_pe674.oe674 (.const:ti_sysbios_knl_Idle_coreList__C)
                  c3786ca0    00000008     dsp_pe674.oe674 (.const:ti_sysbios_knl_Idle_funcList__C)
                  c3786ca8    00000008     dsp_pe674.oe674 (.const:ti_sysbios_knl_Task_hooks__C)
                  c3786cb0    00000008     dsp_pe674.oe674 (.const:xdc_runtime_Startup_firstFxns__A)
                  c3786cb8    00000008     dsp_pe674.oe674 (.const:xdc_runtime_Startup_firstFxns__C)
                  c3786cc0    00000008     dsp_pe674.oe674 (.const:xdc_runtime_Startup_lastFxns__C)
                  c3786cc8    00000004     dsp_pe674.oe674 (.const:ti_sdo_ipc_Notify_numEvents__C)
                  c3786ccc    00000004     dsp_pe674.oe674 (.const:ti_sdo_ipc_Notify_sendEventPollCount__C)
                  c3786cd0    00000004     dsp_pe674.oe674 (.const:ti_sdo_ipc_SharedRegion_INVALIDSRPTR__C)
                  c3786cd4    00000004     dsp_pe674.oe674 (.const:ti_sdo_ipc_SharedRegion_numOffsetBits__C)
                  c3786cd8    00000004     dsp_pe674.oe674 (.const:ti_sdo_ipc_SharedRegion_offsetMask__C)
                  c3786cdc    00000004     dsp_pe674.oe674 (.const:ti_sdo_ipc_family_da830_NotifySetup_armRecvIntId0__C)
                  c3786ce0    00000004     dsp_pe674.oe674 (.const:ti_sdo_ipc_family_da830_NotifySetup_armRecvIntId1__C)
                  c3786ce4    00000004     dsp_pe674.oe674 (.const:ti_sdo_ipc_family_da830_NotifySetup_dspIntVectId0__C)
                  c3786ce8    00000004     dsp_pe674.oe674 (.const:ti_sdo_ipc_family_da830_NotifySetup_dspIntVectId1__C)
                  c3786cec    00000004     dsp_pe674.oe674 (.const:ti_sdo_ipc_family_da830_NotifySetup_dspRecvIntId0__C)
                  c3786cf0    00000004     dsp_pe674.oe674 (.const:ti_sdo_ipc_family_da830_NotifySetup_dspRecvIntId1__C)
                  c3786cf4    00000004     dsp_pe674.oe674 (.const:ti_sdo_ipc_gates_GatePeterson_E_gateRemotelyOpened__C)
                  c3786cf8    00000004     dsp_pe674.oe674 (.const:ti_sdo_ipc_heaps_HeapMemMP_E_memory__C)
                  c3786cfc    00000004     dsp_pe674.oe674 (.const:ti_sdo_ipc_interfaces_IGateMPSupport_Interface__BASE__C)
                  c3786d00    00000004     dsp_pe674.oe674 (.const:ti_sdo_ipc_interfaces_IMessageQTransport_Interface__BASE__C)
                  c3786d04    00000004     dsp_pe674.oe674 (.const:ti_sdo_ipc_interfaces_INotifyDriver_Interface__BASE__C)
                  c3786d08    00000004     dsp_pe674.oe674 (.const:ti_sdo_ipc_notifyDrivers_NotifyDriverShm_Object__heap__C)
                  c3786d0c    00000004     dsp_pe674.oe674 (.const:ti_sdo_ipc_nsremote_NameServerRemoteNotify_Instance_State_semMultiBlock__O)
                  c3786d10    00000004     dsp_pe674.oe674 (.const:ti_sdo_ipc_nsremote_NameServerRemoteNotify_Instance_State_semRemoteWait__O)
                  c3786d14    00000004     dsp_pe674.oe674 (.const:ti_sdo_ipc_nsremote_NameServerRemoteNotify_Instance_State_swiObj__O)
                  c3786d18    00000004     dsp_pe674.oe674 (.const:ti_sdo_ipc_nsremote_NameServerRemoteNotify_notifyEventId__C)
                  c3786d1c    00000004     dsp_pe674.oe674 (.const:ti_sdo_ipc_nsremote_NameServerRemoteNotify_timeout__C)
                  c3786d20    00000004     dsp_pe674.oe674 (.const:ti_sdo_ipc_transports_TransportShmSetup_priority__C)
                  c3786d24    00000004     dsp_pe674.oe674 (.const:ti_sdo_ipc_transports_TransportShm_Instance_State_swiObj__O)
                  c3786d28    00000004     dsp_pe674.oe674 (.const:ti_sdo_utils_INameServerRemote_Interface__BASE__C)
                  c3786d2c    00000004     dsp_pe674.oe674 (.const:ti_sdo_utils_MultiProc_nameList__C)
                  c3786d30    00000004     dsp_pe674.oe674 (.const:ti_sdo_utils_NameServer_E_entryExists__C)
                  c3786d34    00000004     dsp_pe674.oe674 (.const:ti_sdo_utils_NameServer_E_maxReached__C)
                  c3786d38    00000004     dsp_pe674.oe674 (.const:ti_sdo_utils_NameServer_Instance_State_freeList__O)
                  c3786d3c    00000004     dsp_pe674.oe674 (.const:ti_sdo_utils_NameServer_Instance_State_nameList__O)
                  c3786d40    00000004     dsp_pe674.oe674 (.const:ti_sdo_utils_NameServer_Object__count__C)
                  c3786d44    00000004     dsp_pe674.oe674 (.const:ti_sdo_utils_NameServer_Object__heap__C)
                  c3786d48    00000004     dsp_pe674.oe674 (.const:ti_sysbios_BIOS_installedErrorHook__C)
                  c3786d4c    00000004     dsp_pe674.oe674 (.const:ti_sysbios_family_c62_TaskSupport_stackAlignment__C)
                  c3786d50    00000004     dsp_pe674.oe674 (.const:ti_sysbios_family_c64p_Cache_EMIFA_BASE__C)
                  c3786d54    00000004     dsp_pe674.oe674 (.const:ti_sysbios_family_c64p_Cache_EMIFA_CFG__C)
                  c3786d58    00000004     dsp_pe674.oe674 (.const:ti_sysbios_family_c64p_Cache_EMIFA_LENGTH__C)
                  c3786d5c    00000004     dsp_pe674.oe674 (.const:ti_sysbios_family_c64p_Cache_EMIFB_BASE__C)
                  c3786d60    00000004     dsp_pe674.oe674 (.const:ti_sysbios_family_c64p_Cache_EMIFB_CFG__C)
                  c3786d64    00000004     dsp_pe674.oe674 (.const:ti_sysbios_family_c64p_Cache_EMIFB_LENGTH__C)
                  c3786d68    00000004     dsp_pe674.oe674 (.const:ti_sysbios_family_c64p_Cache_EMIFC_BASE__C)
                  c3786d6c    00000004     dsp_pe674.oe674 (.const:ti_sysbios_family_c64p_Cache_EMIFC_CFG__C)
                  c3786d70    00000004     dsp_pe674.oe674 (.const:ti_sysbios_family_c64p_Cache_EMIFC_LENGTH__C)
                  c3786d74    00000004     dsp_pe674.oe674 (.const:ti_sysbios_family_c64p_Cache_MAR0_31__C)
                  c3786d78    00000004     dsp_pe674.oe674 (.const:ti_sysbios_family_c64p_Cache_MAR128_159__C)
                  c3786d7c    00000004     dsp_pe674.oe674 (.const:ti_sysbios_family_c64p_Cache_MAR160_191__C)
                  c3786d80    00000004     dsp_pe674.oe674 (.const:ti_sysbios_family_c64p_Cache_MAR192_223__C)
                  c3786d84    00000004     dsp_pe674.oe674 (.const:ti_sysbios_family_c64p_Cache_MAR224_255__C)
                  c3786d88    00000004     dsp_pe674.oe674 (.const:ti_sysbios_family_c64p_Cache_MAR32_63__C)
                  c3786d8c    00000004     dsp_pe674.oe674 (.const:ti_sysbios_family_c64p_Cache_MAR64_95__C)
                  c3786d90    00000004     dsp_pe674.oe674 (.const:ti_sysbios_family_c64p_Cache_MAR96_127__C)
                  c3786d94    00000004     dsp_pe674.oe674 (.const:ti_sysbios_family_c64p_Exception_E_exceptionMax__C)
                  c3786d98    00000004     dsp_pe674.oe674 (.const:ti_sysbios_family_c64p_Exception_E_exceptionMin__C)
                  c3786d9c    00000004     dsp_pe674.oe674 (.const:ti_sysbios_family_c64p_Exception_exceptionHook__C)
                  c3786da0    00000004     dsp_pe674.oe674 (.const:ti_sysbios_family_c64p_Exception_externalHook__C)
                  c3786da4    00000004     dsp_pe674.oe674 (.const:ti_sysbios_family_c64p_Exception_internalHook__C)
                  c3786da8    00000004     dsp_pe674.oe674 (.const:ti_sysbios_family_c64p_Exception_nmiHook__C)
                  c3786dac    00000004     dsp_pe674.oe674 (.const:ti_sysbios_family_c64p_Hwi_E_alreadyDefined__C)
                  c3786db0    00000004     dsp_pe674.oe674 (.const:ti_sysbios_family_c64p_Hwi_E_handleNotFound__C)
                  c3786db4    00000004     dsp_pe674.oe674 (.const:ti_sysbios_gates_GateMutexPri_Instance_State_pendQ__O)
                  c3786db8    00000004     dsp_pe674.oe674 (.const:ti_sysbios_gates_GateMutex_Instance_State_sem__O)
                  c3786dbc    00000004     dsp_pe674.oe674 (.const:ti_sysbios_hal_Hwi_E_stackOverflow__C)
                  c3786dc0    00000004     dsp_pe674.oe674 (.const:ti_sysbios_heaps_HeapMem_E_memory__C)
                  c3786dc4    00000004     dsp_pe674.oe674 (.const:ti_sysbios_heaps_HeapMem_Module__gateObj__C)
                  c3786dc8    00000004     dsp_pe674.oe674 (.const:ti_sysbios_heaps_HeapMem_Object__count__C)
                  c3786dcc    00000004     dsp_pe674.oe674 (.const:ti_sysbios_heaps_HeapMem_reqAlign__C)
                  c3786dd0    00000004     dsp_pe674.oe674 (.const:ti_sysbios_knl_Clock_Module_State_clockQ__O)
                  c3786dd4    00000004     dsp_pe674.oe674 (.const:ti_sysbios_knl_Clock_tickMode__C)
                  c3786dd8    00000004     dsp_pe674.oe674 (.const:ti_sysbios_knl_Clock_tickSource__C)
                  c3786ddc    00000004     dsp_pe674.oe674 (.const:ti_sysbios_knl_Semaphore_Instance_State_pendQ__O)
                  c3786de0    00000004     dsp_pe674.oe674 (.const:ti_sysbios_knl_Idle_coreList__A)
                  c3786de4    00000004     dsp_pe674.oe674 (.const:ti_sysbios_knl_Swi_Object__count__C)
                  c3786de8    00000004     dsp_pe674.oe674 (.const:ti_sysbios_knl_Idle_funcList__A)
                  c3786dec    00000004     dsp_pe674.oe674 (.const:ti_sysbios_knl_Swi_numPriorities__C)
                  c3786df0    00000004     dsp_pe674.oe674 (.const:ti_sysbios_knl_Task_E_deleteNotAllowed__C)
                  c3786df4    00000004     dsp_pe674.oe674 (.const:ti_sysbios_knl_Task_E_spOutOfBounds__C)
                  c3786df8    00000004     dsp_pe674.oe674 (.const:ti_sysbios_knl_Task_E_stackOverflow__C)
                  c3786dfc    00000004     dsp_pe674.oe674 (.const:ti_sysbios_knl_Task_Module_State_inactiveQ__O)
                  c3786e00    00000004     dsp_pe674.oe674 (.const:ti_sysbios_knl_Task_Module_State_terminatedQ__O)
                  c3786e04    00000004     dsp_pe674.oe674 (.const:ti_sysbios_knl_Task_Object__count__C)
                  c3786e08    00000004     dsp_pe674.oe674 (.const:ti_sysbios_knl_Task_Object__heap__C)
                  c3786e0c    00000004     dsp_pe674.oe674 (.const:ti_sysbios_knl_Task_allBlockedFunc__C)
                  c3786e10    00000004     dsp_pe674.oe674 (.const:ti_sysbios_knl_Task_defaultStackHeap__C)
                  c3786e14    00000004     dsp_pe674.oe674 (.const:ti_sysbios_knl_Task_defaultStackSize__C)
                  c3786e18    00000004     dsp_pe674.oe674 (.const:ti_sysbios_knl_Task_numConstructedTasks__C)
                  c3786e1c    00000004     dsp_pe674.oe674 (.const:ti_sysbios_timers_timer64_Timer_E_cannotSupport__C)
                  c3786e20    00000004     dsp_pe674.oe674 (.const:ti_sysbios_timers_timer64_Timer_anyMask__C)
                  c3786e24    00000004     dsp_pe674.oe674 (.const:ti_sysbios_timers_timer64_Timer_freqDivisor__C)
                  c3786e28    00000004     dsp_pe674.oe674 (.const:ti_sysbios_timers_timer64_Timer_numLocalTimers__C)
                  c3786e2c    00000004     dsp_pe674.oe674 (.const:ti_sysbios_timers_timer64_Timer_numTimerDevices__C)
                  c3786e30    00000004     dsp_pe674.oe674 (.const:ti_sysbios_xdcruntime_GateThreadSupport_Instance_State_gate__O)
                  c3786e34    00000004     dsp_pe674.oe674 (.const:xdc_runtime_Assert_E_assertFailed__C)
                  c3786e38    00000004     dsp_pe674.oe674 (.const:xdc_runtime_Core_A_initializedParams__C)
                  c3786e3c    00000004     dsp_pe674.oe674 (.const:xdc_runtime_Core_Module__diagsEnabled__C)
                  c3786e40    00000004     dsp_pe674.oe674 (.const:xdc_runtime_Core_Module__diagsIncluded__C)
                  c3786e44    00000004     dsp_pe674.oe674 (.const:xdc_runtime_Core_Module__diagsMask__C)
                  c3786e48    00000004     dsp_pe674.oe674 (.const:xdc_runtime_Error_E_memory__C)
                  c3786e4c    00000004     dsp_pe674.oe674 (.const:xdc_runtime_Error_Module__diagsEnabled__C)
                  c3786e50    00000004     dsp_pe674.oe674 (.const:xdc_runtime_Error_Module__diagsIncluded__C)
                  c3786e54    00000004     dsp_pe674.oe674 (.const:xdc_runtime_Error_Module__diagsMask__C)
                  c3786e58    00000004     dsp_pe674.oe674 (.const:xdc_runtime_Error_Module__loggerFxn8__C)
                  c3786e5c    00000004     dsp_pe674.oe674 (.const:xdc_runtime_Error_Module__loggerObj__C)
                  c3786e60    00000004     dsp_pe674.oe674 (.const:xdc_runtime_Error_policy__C)
                  c3786e64    00000004     dsp_pe674.oe674 (.const:xdc_runtime_Error_raiseHook__C)
                  c3786e68    00000004     dsp_pe674.oe674 (.const:xdc_runtime_IFilterLogger_Interface__BASE__C)
                  c3786e6c    00000004     dsp_pe674.oe674 (.const:xdc_runtime_IGateProvider_Interface__BASE__C)
                  c3786e70    00000004     dsp_pe674.oe674 (.const:xdc_runtime_IHeap_Interface__BASE__C)
                  c3786e74    00000004     dsp_pe674.oe674 (.const:xdc_runtime_ILogger_Interface__BASE__C)
                  c3786e78    00000004     dsp_pe674.oe674 (.const:xdc_runtime_IModule_Interface__BASE__C)
                  c3786e7c    00000004     dsp_pe674.oe674 (.const:xdc_runtime_Log_L_error__C)
                  c3786e80    00000004     dsp_pe674.oe674 (.const:xdc_runtime_LoggerBuf_E_badLevel__C)
                  c3786e84    00000004     dsp_pe674.oe674 (.const:xdc_runtime_LoggerBuf_Module__gateObj__C)
                  c3786e88    00000004     dsp_pe674.oe674 (.const:xdc_runtime_LoggerBuf_Object__count__C)
                  c3786e8c    00000004     dsp_pe674.oe674 (.const:xdc_runtime_LoggerBuf_statusLogger__C)
                  c3786e90    00000004     dsp_pe674.oe674 (.const:xdc_runtime_Memory_defaultHeapInstance__C)
                  c3786e94    00000004     dsp_pe674.oe674 (.const:xdc_runtime_Startup_execImpl__C)
                  c3786e98    00000004     dsp_pe674.oe674 (.const:xdc_runtime_Startup_lastFxns__A)
                  c3786e9c    00000004     dsp_pe674.oe674 (.const:xdc_runtime_Startup_maxPasses__C)
                  c3786ea0    00000004     dsp_pe674.oe674 (.const:xdc_runtime_Startup_sfxnRts__C)
                  c3786ea4    00000004     dsp_pe674.oe674 (.const:xdc_runtime_Startup_sfxnTab__C)
                  c3786ea8    00000004     dsp_pe674.oe674 (.const:xdc_runtime_SysMin_bufSize__C)
                  c3786eac    00000004     dsp_pe674.oe674 (.const:xdc_runtime_SysMin_outputFunc__C)
                  c3786eb0    00000004     dsp_pe674.oe674 (.const:xdc_runtime_System_Module__gateObj__C)
                  c3786eb4    00000004     dsp_pe674.oe674 (.const:xdc_runtime_System_extendFxn__C)
                  c3786eb8    00000004     dsp_pe674.oe674 (.const:xdc_runtime_System_maxAtexitHandlers__C)
                  c3786ebc    00000004     dsp_pe674.oe674 (.const:xdc_runtime_Text_charTab__C)
                  c3786ec0    00000004     dsp_pe674.oe674 (.const:xdc_runtime_Text_nameEmpty__C)
                  c3786ec4    00000004     dsp_pe674.oe674 (.const:xdc_runtime_Text_nameStatic__C)
                  c3786ec8    00000004     dsp_pe674.oe674 (.const:xdc_runtime_Text_nameUnknown__C)
                  c3786ecc    00000004     dsp_pe674.oe674 (.const:xdc_runtime_Text_nodeTab__C)
                  c3786ed0    00000004     dsp_pe674.oe674 (.const:xdc_runtime_Text_visitRopeFxn__C)
                  c3786ed4    00000002     dsp_pe674.oe674 (.const:ti_sdo_ipc_Notify_numLines__C)
                  c3786ed6    00000002     dsp_pe674.oe674 (.const:ti_sdo_ipc_SharedRegion_numEntries__C)
                  c3786ed8    00000002     dsp_pe674.oe674 (.const:ti_sdo_ipc_SharedRegion_translate__C)
                  c3786eda    00000002     dsp_pe674.oe674 (.const:ti_sdo_ipc_family_da830_NotifySetup_useSecondLine__C)
                  c3786edc    00000002     dsp_pe674.oe674 (.const:ti_sdo_ipc_gates_GatePeterson_Module__id__C)
                  c3786ede    00000002     dsp_pe674.oe674 (.const:ti_sdo_ipc_heaps_HeapMemMP_Module__id__C)
                  c3786ee0    00000002     dsp_pe674.oe674 (.const:ti_sdo_ipc_nsremote_NameServerRemoteNotify_Module__id__C)
                  c3786ee2    00000002     dsp_pe674.oe674 (.const:ti_sdo_ipc_transports_TransportShm_Module__id__C)
                  c3786ee4    00000002     dsp_pe674.oe674 (.const:ti_sdo_ipc_transports_TransportShm_notifyEventId__C)
                  c3786ee6    00000002     dsp_pe674.oe674 (.const:ti_sdo_utils_MultiProc_numProcessors__C)
                  c3786ee8    00000002     dsp_pe674.oe674 (.const:ti_sdo_utils_MultiProc_numProcsInCluster__C)
                  c3786eea    00000002     dsp_pe674.oe674 (.const:ti_sdo_utils_NameServer_Module__id__C)
                  c3786eec    00000002     dsp_pe674.oe674 (.const:ti_sdo_utils_NameServer_singleProcessor__C)
                  c3786eee    00000002     dsp_pe674.oe674 (.const:ti_sysbios_family_c64p_Exception_Module__id__C)
                  c3786ef0    00000002     dsp_pe674.oe674 (.const:ti_sysbios_family_c64p_Exception_enableExternalMPC__C)
                  c3786ef2    00000002     dsp_pe674.oe674 (.const:ti_sysbios_family_c64p_Exception_enablePrint__C)
                  c3786ef4    00000002     dsp_pe674.oe674 (.const:ti_sysbios_family_c64p_Exception_useInternalBuffer__C)
                  c3786ef6    00000002     dsp_pe674.oe674 (.const:ti_sysbios_family_c64p_Hwi_Module__id__C)
                  c3786ef8    00000002     dsp_pe674.oe674 (.const:ti_sysbios_hal_Hwi_Module__id__C)
                  c3786efa    00000002     dsp_pe674.oe674 (.const:ti_sysbios_heaps_HeapMem_Module__id__C)
                  c3786efc    00000002     dsp_pe674.oe674 (.const:ti_sysbios_knl_Task_Module__id__C)
                  c3786efe    00000002     dsp_pe674.oe674 (.const:ti_sysbios_knl_Task_deleteTerminatedTasks__C)
                  c3786f00    00000002     dsp_pe674.oe674 (.const:ti_sysbios_knl_Task_initStackFlag__C)
                  c3786f02    00000002     dsp_pe674.oe674 (.const:ti_sysbios_timers_timer64_Timer_Module__id__C)
                  c3786f04    00000002     dsp_pe674.oe674 (.const:ti_sysbios_timers_timer64_Timer_startupNeeded__C)
                  c3786f06    00000002     dsp_pe674.oe674 (.const:xdc_runtime_Core_Module__id__C)
                  c3786f08    00000002     dsp_pe674.oe674 (.const:xdc_runtime_Error_Module__loggerDefined__C)
                  c3786f0a    00000002     dsp_pe674.oe674 (.const:xdc_runtime_Error_maxDepth__C)
                  c3786f0c    00000002     dsp_pe674.oe674 (.const:xdc_runtime_LoggerBuf_Module__id__C)
                  c3786f0e    00000002     dsp_pe674.oe674 (.const:xdc_runtime_LoggerBuf_filterByLevel__C)
                  c3786f10    00000002     dsp_pe674.oe674 (.const:xdc_runtime_Memory_Module__id__C)
                  c3786f12    00000002     dsp_pe674.oe674 (.const:xdc_runtime_SysMin_flushAtExit__C)
                  c3786f14    00000002     dsp_pe674.oe674 (.const:xdc_runtime_Text_charCnt__C)
                  c3786f16    00000002     dsp_pe674.oe674 (.const:xdc_runtime_Text_isLoaded__C)
                  c3786f18    00000002     dsp_pe674.oe674 (.const:xdc_runtime_Text_registryModsLastId__C)
                  c3786f1a    00000002     dsp_pe674.oe674 (.const:xdc_runtime_Text_unnamedModsLastId__C)

.stack     0    c3786f20    00001000     UNINITIALIZED
                  c3786f20    00000008     boot.ae674 : boot.oe674 (.stack)
                  c3786f28    00000ff8     --HOLE--

.switch    0    c3787f20    00000084     
                  c3787f20    00000024     utils.lib : uartStdio.obj (.switch:UARTprintf)
                  c3787f44    00000020     ti.syslink.ipc.rtos.ae674 : ClientNotifyMgr.oe674 (.switch:ClientNotifyMgr_delete)
                  c3787f64    00000010                               : ClientNotifyMgr.oe674 (.switch:ClientNotifyMgr_sendNotification)
                  c3787f74    00000010                               : ClientNotifyMgr.oe674 (.switch:ClientNotifyMgr_sendNotificationMulti)
                  c3787f84    00000010     drivers.lib : gpio.obj (.switch:GPIOIntTypeSet)
                  c3787f94    00000010     ipc.ae674 : Ipc.obj (.switch:ti_sdo_ipc_GateMP_Instance_finalize__F)

.bss       0    c3787fa4    00000008     UNINITIALIZED
                  c3787fa4    00000004     ti.syslink.ipc.rtos.ae674 : FrameQ.oe674 (.bss)
                  c3787fa8    00000004                               : FrameQBufMgr.oe674 (.bss)

.neardata 
*          0    c3787fac    00000028     
                  c3787fac    00000008     dsp_pe674.oe674 (.neardata)
                  c3787fb4    00000008     ti.syslink.ipc.rtos.ae674 : ClientNotifyMgr.oe674 (.neardata)
                  c3787fbc    00000004                               : FrameQ.oe674 (.neardata)
                  c3787fc0    00000004                               : FrameQBufMgr.oe674 (.neardata)
                  c3787fc4    00000004                               : FrameQBufMgr_ShMem.oe674 (.neardata)
                  c3787fc8    00000004                               : FrameQ_ShMem.oe674 (.neardata)
                  c3787fcc    00000004                               : RingIO.oe674 (.neardata)
                  c3787fd0    00000004                               : RingIOShm.oe674 (.neardata)

.rodata    0    c3787fd4    00000000     UNINITIALIZED

.vecs      0    c3788000    00000200     
                  c3788000    00000200     dsp_pe674.oe674 (.vecs)

.cio       0    c3788200    00000120     UNINITIALIZED
                  c3788200    00000120     rts6740_elf.lib : trgmsg.obj (.cio)

.args      0    c3788320    00000064     
                  c3788320    00000064     --HOLE-- [fill = 0]

ti_sdo_ipc_init 
*          0    c3788400    0000008c     
                  c3788400    0000008c     dsp_pe674.oe674 (ti_sdo_ipc_init)


GLOBAL SYMBOLS: SORTED ALPHABETICALLY BY Name 

address    name
--------   ----
c374f640   C$$EXIT
c374d318   C$$IO$$
c3787fb4   CLIENTNOTIFYMGR_NAMESERVERNAME
c374b820   ClientNotifyMgr_Params_init
c374b880   ClientNotifyMgr_callBack
c3745920   ClientNotifyMgr_cbFxn
c374ecc0   ClientNotifyMgr_close
c374ece0   ClientNotifyMgr_create
c3729b20   ClientNotifyMgr_delete
c373bae0   ClientNotifyMgr_destroy
c3745a00   ClientNotifyMgr_enableNotification
c374b8e0   ClientNotifyMgr_getConfig
c3734a40   ClientNotifyMgr_registerClient
c3732140   ClientNotifyMgr_sendForceNotificationMulti
c3731ca0   ClientNotifyMgr_sendNotification
c372ee60   ClientNotifyMgr_sendNotificationMulti
c372bd00   ClientNotifyMgr_setup
c3747440   ClientNotifyMgr_sharedMemReq
c3743620   ClientNotifyMgr_swiFxn
c3745ae0   ClientNotifyMgr_thFxn
c372fa20   ClientNotifyMgr_threadFxn
c3734de0   ClientNotifyMgr_unregisterClient
c3740b20   ClientNotifyMgr_waitOnMultiSubEntryNotify
c374b9a0   FrameQBufMgr_Params_init
c3739a60   FrameQBufMgr_ShMem_Params_init
c374ed20   FrameQBufMgr_ShMem_add
c3736900   FrameQBufMgr_ShMem_alloc
c372f440   FrameQBufMgr_ShMem_allocv
c374ed40   FrameQBufMgr_ShMem_close
c374ed60   FrameQBufMgr_ShMem_control
c3721840   FrameQBufMgr_ShMem_create
c3728920   FrameQBufMgr_ShMem_delete
c3747500   FrameQBufMgr_ShMem_destroy
c372e820   FrameQBufMgr_ShMem_dup
c372daa0   FrameQBufMgr_ShMem_dupv
c37358c0   FrameQBufMgr_ShMem_free
c3733ee0   FrameQBufMgr_ShMem_freev
c3780804   FrameQBufMgr_ShMem_fxns
c374ba00   FrameQBufMgr_ShMem_getConfig
c374ed80   FrameQBufMgr_ShMem_getId
c3748b80   FrameQBufMgr_ShMem_getNumFreeFrames
c3742c00   FrameQBufMgr_ShMem_getvNumFreeFrames
c3740c80   FrameQBufMgr_ShMem_invalidate
c374ba60   FrameQBufMgr_ShMem_invalidateFrameBuf
c3749da0   FrameQBufMgr_ShMem_invalidateHeaderBuf
c374eda0   FrameQBufMgr_ShMem_isCacheEnabledForFrameBuf
c374edc0   FrameQBufMgr_ShMem_isCacheEnabledForHeaderBuf
c3742d20   FrameQBufMgr_ShMem_open
c3748c20   FrameQBufMgr_ShMem_registerNotifier
c374ede0   FrameQBufMgr_ShMem_remove
c373f0c0   FrameQBufMgr_ShMem_setup
c3732e60   FrameQBufMgr_ShMem_sharedMemReq
c3748cc0   FrameQBufMgr_ShMem_translateAddr
c374bac0   FrameQBufMgr_ShMem_unregisterNotifier
c3740de0   FrameQBufMgr_ShMem_writeBack
c374bb20   FrameQBufMgr_ShMem_writeBackFrameBuf
c374bb80   FrameQBufMgr_ShMem_writeBackHeaderBuf
c3743720   FrameQBufMgr_Shmem_updateCacheFlags
c374ee00   FrameQBufMgr_alloc
c374ee20   FrameQBufMgr_allocv
c374ee40   FrameQBufMgr_close
c37365e0   FrameQBufMgr_create
c373f260   FrameQBufMgr_delete
c3743820   FrameQBufMgr_destroy
c374ee60   FrameQBufMgr_dup
c374ee80   FrameQBufMgr_dupv
c374eea0   FrameQBufMgr_free
c3749e20   FrameQBufMgr_freeInstNo
c374eec0   FrameQBufMgr_freev
c374eee0   FrameQBufMgr_getBaseHeaderSize
c374bbe0   FrameQBufMgr_getConfig
c3745bc0   FrameQBufMgr_getHandle
c374ef00   FrameQBufMgr_getId
c3745ca0   FrameQBufMgr_getInstNo
c374ef20   FrameQBufMgr_getNumFreeFrames
c374ef40   FrameQBufMgr_getvNumFreeFrames
c374ef60   FrameQBufMgr_invalidateFrameBuf
c374ef80   FrameQBufMgr_invalidateHeaderBuf
c374efa0   FrameQBufMgr_isCacheEnabledForFrameBuf
c374efc0   FrameQBufMgr_isCacheEnabledForHeaderBuf
c3735c20   FrameQBufMgr_open
c374efe0   FrameQBufMgr_registerNotifier
c373d1c0   FrameQBufMgr_setup
c374f000   FrameQBufMgr_translateAddr
c374f020   FrameQBufMgr_unregisterNotifier
c374f040   FrameQBufMgr_writeBackFrameBuf
c374f060   FrameQBufMgr_writeBackHeaderBuf
c374f080   FrameQ_ShMem_Params_init
c374bc40   FrameQ_ShMem_alloc
c374bca0   FrameQ_ShMem_allocv
c374f0a0   FrameQ_ShMem_close
c374f0c0   FrameQ_ShMem_control
c3723a20   FrameQ_ShMem_create
c3727ec0   FrameQ_ShMem_delete
c3749ea0   FrameQ_ShMem_destroy
c374d740   FrameQ_ShMem_dup
c3733280   FrameQ_ShMem_flushAll
c374d780   FrameQ_ShMem_free
c374bd00   FrameQ_ShMem_freev
c3781f30   FrameQ_ShMem_fxns
c3735f60   FrameQ_ShMem_get
c374bd60   FrameQ_ShMem_getConfig
c373d3a0   FrameQ_ShMem_getNumFrames
c374d7c0   FrameQ_ShMem_getNumFreeFrames
c372e180   FrameQ_ShMem_getv
c3735180   FrameQ_ShMem_getvNumFrames
c374d800   FrameQ_ShMem_getvNumFreeFrames
c3787fc8   FrameQ_ShMem_module
c3781fa0   FrameQ_ShMem_module_obj
c3745d80   FrameQ_ShMem_open
c372b500   FrameQ_ShMem_put
c3729220   FrameQ_ShMem_putv
c3737da0   FrameQ_ShMem_registerNotifier
c374d840   FrameQ_ShMem_sendNotify
c3740f40   FrameQ_ShMem_setup
c373bd00   FrameQ_ShMem_sharedMemReq
c373ad60   FrameQ_ShMem_unregisterNotifier
c37475c0   FrameQ_Shmem_updateCacheFlags
c37410a0   FrameQ_destroy
c374d880   FrameQ_getConfig
c3721810   FrameQ_moduleCfg
c373afa0   FrameQ_setup
c373d940   GPIOBank0Pin0PinMuxSetup
c373d978   GPIOBank0Pin1PinMuxSetup
c373d9b4   GPIOBank0Pin2PinMuxSetup
c373d9f0   GPIOBank0Pin5PinMuxSetup
c373da2c   GPIOBank0Pin6PinMuxSetup
c373daa4   GPIOBank6Pin12PinMuxSetup
c373dae0   GPIOBank6Pin13PinMuxSetup
c373da68   GPIOBank6Pin1PinMuxSetup
c37385b8   GPIOBankIntDisable
c37385a0   GPIOBankIntEnable
c3738560   GPIOBankPinsWrite
c3738530   GPIODirModeGet
c37384d4   GPIODirModeSet
c3738490   GPIOIntTypeGet
c37383f4   GPIOIntTypeSet
c37383d0   GPIOPinIntClear
c37383a0   GPIOPinIntStatus
c373836c   GPIOPinRead
c3738320   GPIOPinWrite
c374bdc0   GateMP_Params_init
c3749f20   GateMP_close
c3749fa0   GateMP_create
c374f0e0   GateMP_delete
c374f100   GateMP_enter
c374f120   GateMP_getDefaultRemote
c374f140   GateMP_getLocalProtect
c374f160   GateMP_leave
c3739cc0   GateMP_openByAddr
c373d580   GateMP_sharedMemReq
c3747680   HOSTwrite
c374be20   HeapMemMP_Params_init
c3747740   HeapMemMP_create
c3741d00   HeapMemMP_openByAddr
c374a020   HeapMemMP_restore
c3742e40   HeapMemMP_sharedMemReq
c372c4e0   Ipc_attach
c372cca0   Ipc_detach
c374be80   Ipc_isAttached
c3788408   Ipc_sr0MemorySetup
c3739f20   Ipc_start
c3747800   Ipc_stop
c3736c00   Ipc_writeConfig
c374f180   ListMP_Params_init
c374f1a0   ListMP_close
c37478c0   ListMP_create
c374f1c0   ListMP_delete
c3737500   ListMP_getHead
c373d760   ListMP_openByAddr
c3738de0   ListMP_putHead
c3739060   ListMP_putTail
c37392e0   ListMP_remove
c3743920   ListMP_sharedMemReq
c3741e40   MessageQ_put
c3747980   MultiProc_getId
c374f1e0   MultiProc_getNumProcessors
c374f200   MultiProc_self
c374f220   NameServer_Params_init
c3735520   NameServer_add
c374f240   NameServer_addUInt32
c3747a40   NameServer_create
c374f260   NameServer_delete
c3738060   NameServer_get
c373fc20   NameServer_getHandle
c3745e60   NameServer_getLocal
c374f280   NameServer_getUInt32
c374f2a0   NameServer_removeEntry
c374d8c0   Notify_intLineRegistered
c374bee0   Notify_numIntLines
c3741f80   Notify_registerEvent
c3743a20   Notify_registerEventSingle
c3743b20   Notify_sendEvent
c374bf40   Notify_sharedMemReq
c373b1e0   Notify_unregisterEvent
c3743c20   Notify_unregisterEventSingle
c37400a0   PSCModuleControl
c374d900   RingIOShm_destroy
c374f2c0   RingIOShm_getConfig
c372181c   RingIOShm_moduleCfg
c3746020   RingIOShm_setup
c374f2e0   RingIO_Params_init
c3746100   RingIO_destroy
c374f300   RingIO_getConfig
c3721828   RingIO_moduleCfg
c373ff20   RingIO_setup
c374bfa0   SharedRegion_getCacheLineSize
c374a0a0   SharedRegion_getEntry
c374c000   SharedRegion_getHeap
c3747b00   SharedRegion_getId
c3748d60   SharedRegion_getPtr
c3748e00   SharedRegion_getSRPtr
c374f320   SharedRegion_invalidSRPtr
c374c060   SharedRegion_isCacheEnabled
c374f340   SysLink_destroy
c3741200   SysLink_setup
c374d940   SyslinkMemMgr_SharedMemory_Params_init
c374c0c0   SyslinkMemMgr_SharedMemory_alloc
c374c120   SyslinkMemMgr_SharedMemory_create
c374a120   SyslinkMemMgr_SharedMemory_delete
c374c180   SyslinkMemMgr_SharedMemory_free
c378249c   SyslinkMemMgr_SharedMemory_fxns
c37461e0   SyslinkMemMgr_SharedMemory_translate
c374d980   SyslinkMemMgr_TilerMemory_Params_init
c374f360   SyslinkMemMgr_TilerMemory_alloc
c374c1e0   SyslinkMemMgr_TilerMemory_create
c374a1a0   SyslinkMemMgr_TilerMemory_delete
c374f380   SyslinkMemMgr_TilerMemory_free
c37824b8   SyslinkMemMgr_TilerMemory_fxns
c374f3a0   SyslinkMemMgr_TilerMemory_translate
c374c240   SyslinkMemMgr_alloc
c373bf20   SyslinkMemMgr_create
c3747bc0   SyslinkMemMgr_delete
c374c2a0   SyslinkMemMgr_free
c374f3c0   SyslinkMemMgr_translate
c3782544   Syslink_RingIOShm_moduleCfg
c378253c   Syslink_RingIO_moduleCfg
c3787fac   Syslink_terminateEventId
c3787fb0   Syslink_terminateEventLineId
c3782200   TSK_idle
c37365b0   UARTBreakCtl
c3736580   UARTCharGet
c3736568   UARTCharGetNonBlocking
c3736524   UARTCharPut
c373650c   UARTCharPutNonBlocking
c3736500   UARTCharsAvail
c37364a8   UARTConfigGetExpClk
c3736410   UARTConfigSetExpClk
c3746000   UARTConsoleGetc
c3745fa0   UARTConsoleInit
c3745fd8   UARTConsolePutc
c3736404   UARTDMADisable
c37363f4   UARTDMAEnable
c37363d8   UARTDisable
c37363cc   UARTEnable
c37363c4   UARTFIFODisable
c37363b8   UARTFIFOEnable
c37363a8   UARTFIFOLevelSet
c3727138   UARTGetHexNum
c3727094   UARTGetNum
c374f3e0   UARTGetc
c3727008   UARTGets
c3736388   UARTIntDisable
c373636c   UARTIntEnable
c3736364   UARTIntStatus
c3736340   UARTModemControlClear
c3736330   UARTModemControlGet
c3736300   UARTModemControlSet
c37362f0   UARTModemStatusGet
c37362e4   UARTParityModeGet
c37362b8   UARTParityModeSet
c373fda0   UARTPinMuxSetup
c3726ef4   UARTPutHexNum
c3726dcc   UARTPutNum
c374f400   UARTPutc
c3726d00   UARTPuts
c37362ac   UARTRxErrorGet
c37362a0   UARTSpaceAvail
c374f420   UARTStdioInit
c37267c0   UARTprintf
c3726740   UARTwrite
c3724a80   _ClientNotifyMgr_create
c374f440   _FrameQBufMgr_ShMem_getCliNotifyMgrGateShAddr
c374f460   _FrameQBufMgr_ShMem_getCliNotifyMgrShAddr
c374f480   _FrameQBufMgr_ShMem_resetNotifyId
c374f4a0   _FrameQBufMgr_ShMem_setNotifyId
c374f4c0   _FrameQ_ShMem_getCliNotifyMgrGate
c374f4e0   _FrameQ_ShMem_getCliNotifyMgrGateShAddr
c374f500   _FrameQ_ShMem_getCliNotifyMgrHandle
c374f520   _FrameQ_ShMem_getCliNotifyMgrShAddr
c3725a20   _FrameQ_ShMem_open
c3743d20   _FrameQ_ShMem_resetNotifyId
c3743e20   _FrameQ_ShMem_setNotifyId
c3788400   _Ipc_ResetVector
c3000000   __ASM__
c3788200   __CIOBUF_
c3000050   __ISA__
c3000068   __PLAT__
c3000090   __TARG__
UNDEFED    __TI_CINIT_Base
UNDEFED    __TI_CINIT_Limit
UNDEFED    __TI_Handler_Table_Base
UNDEFED    __TI_Handler_Table_Limit
UNDEFED    __TI_INITARRAY_Base
UNDEFED    __TI_INITARRAY_Limit
c3787f20   __TI_STACK_END
00001000   __TI_STACK_SIZE
c3787fa4   __TI_STATIC_BASE
00000001   __TI_args_main
c3782538   __TI_enable_exit_profile_output
ffffffff   __TI_pprof_out_hndl
ffffffff   __TI_prof_data_size
ffffffff   __TI_prof_data_start
c30000b8   __TRDR__
ffffffff   __binit__
c3747e00   __c6xabi_divu
c373a180   __c6xabi_divull
c374a220   __c6xabi_llshl
c374d9c0   __c6xabi_llshru
c3748ea0   __c6xabi_remu
c374da00   __c6xabi_strasgi_64plus
c3788320   __c_args__
c374f540   __cxa_atexit
c3747d40   __cxa_finalize
c374f560   __cxa_ia64_exit
c3747e00   __divu
c3748ea0   __remu
c374da00   __strasgi_64plus
c374f580   __xdc__init
c3781c00   __xdc__init__addr
c374da40   _args_main
00000064   _argsize
c37420c0   _auto_init_elf
c3748f40   _c_int00
c3782530   _cleanup_ptr
c3782534   _dtors_ptr
c3782554   _lock
c374f5a0   _nop
c374f5c0   _register_lock
c374f5e0   _register_unlock
c3786f20   _stack
c374c300   _subcull
c3782558   _unlock
c374f640   abort
c374f660   atexit
ffffffff   binit
c374c360   calloc
c3747ec0   exit
c374db00   free
c3787fa8   gFrameQBufMgr_nsHandle
c3787fa4   gFrameQ_nsHandle
c374a320   main
c374a3a0   malloc
c3749080   memcpy
c37462c0   memset
c374a420   readmsg
c373104c   resource_sync_destroy
c3730ecc   resource_sync_new
c3731090   resource_sync_pair_wait
c3731268   resource_sync_post
c37311a4   resource_sync_wait
c373db20   server_new
c373db6c   server_start
c374a4a0   strncpy
c3731464   syslink_connnect
c3731440   syslink_destroy
c37315c8   syslink_disconnect
c3731788   syslink_host_id
c3731320   syslink_new
c3730040   syslink_service_destroy
c373044c   syslink_service_host_id
c37303ac   syslink_service_install
c3730010   syslink_service_new
c3730064   syslink_service_start
c3785ca4   ti_sdo_ipc_GateMP_E_gateUnavailable__C
c37860c4   ti_sdo_ipc_GateMP_E_localGate__C
c3733ac0   ti_sdo_ipc_GateMP_Instance_finalize__F
c3727380   ti_sdo_ipc_GateMP_Instance_init__F
c3782588   ti_sdo_ipc_GateMP_Module_State_0_remoteCustom2Gates__A
c3781010   ti_sdo_ipc_GateMP_Module_State_0_remoteSystemGates__A
c3786b5e   ti_sdo_ipc_GateMP_Module__id__C
c3781810   ti_sdo_ipc_GateMP_Module__root__V
c378181c   ti_sdo_ipc_GateMP_Module__state__V
c3786624   ti_sdo_ipc_GateMP_Object__DESC__C
c37861b8   ti_sdo_ipc_GateMP_Object__PARAMS__C
c37463a0   ti_sdo_ipc_GateMP_Object__create__S
c374c3c0   ti_sdo_ipc_GateMP_Object__delete__S
c374f680   ti_sdo_ipc_GateMP_Params__init__S
c374f6a0   ti_sdo_ipc_GateMP_RemoteCustom1Proxy_Object__create__S
c374f6c0   ti_sdo_ipc_GateMP_RemoteCustom1Proxy_Object__delete__S
c374f6e0   ti_sdo_ipc_GateMP_RemoteCustom1Proxy_Params__init__S
c374f700   ti_sdo_ipc_GateMP_RemoteCustom1Proxy_Proxy__abstract__S
c374f720   ti_sdo_ipc_GateMP_RemoteCustom1Proxy_Proxy__delegate__S
c374f740   ti_sdo_ipc_GateMP_RemoteCustom1Proxy_getReservedMask__E
c374f760   ti_sdo_ipc_GateMP_RemoteCustom1Proxy_sharedMemReq__E
c374f780   ti_sdo_ipc_GateMP_RemoteCustom2Proxy_Object__create__S
c374f7a0   ti_sdo_ipc_GateMP_RemoteCustom2Proxy_Object__delete__S
c374f7c0   ti_sdo_ipc_GateMP_RemoteCustom2Proxy_Params__init__S
c374f7e0   ti_sdo_ipc_GateMP_RemoteCustom2Proxy_Proxy__abstract__S
c374f800   ti_sdo_ipc_GateMP_RemoteCustom2Proxy_Proxy__delegate__S
c374f820   ti_sdo_ipc_GateMP_RemoteCustom2Proxy_getReservedMask__E
c374f840   ti_sdo_ipc_GateMP_RemoteCustom2Proxy_sharedMemReq__E
c374f860   ti_sdo_ipc_GateMP_RemoteSystemProxy_Object__create__S
c374f880   ti_sdo_ipc_GateMP_RemoteSystemProxy_Object__delete__S
c374f8a0   ti_sdo_ipc_GateMP_RemoteSystemProxy_Params__init__S
c374f8c0   ti_sdo_ipc_GateMP_RemoteSystemProxy_Proxy__abstract__S
c374f8e0   ti_sdo_ipc_GateMP_RemoteSystemProxy_Proxy__delegate__S
c374f900   ti_sdo_ipc_GateMP_RemoteSystemProxy_getReservedMask__E
c374f920   ti_sdo_ipc_GateMP_RemoteSystemProxy_sharedMemReq__E
c374f940   ti_sdo_ipc_GateMP_attach__E
c3747f80   ti_sdo_ipc_GateMP_attach__F
c374c420   ti_sdo_ipc_GateMP_createLocal__F
c374f960   ti_sdo_ipc_GateMP_detach__E
c3749120   ti_sdo_ipc_GateMP_detach__F
c373e480   ti_sdo_ipc_GateMP_getFreeResource__I
c374f980   ti_sdo_ipc_GateMP_getRegion0ReservedSize__E
c37491c0   ti_sdo_ipc_GateMP_getRegion0ReservedSize__F
c374f9a0   ti_sdo_ipc_GateMP_getSharedAddr__E
c374f9c0   ti_sdo_ipc_GateMP_getSharedAddr__F
c3741360   ti_sdo_ipc_GateMP_openRegion0Reserved__F
c37325a0   ti_sdo_ipc_GateMP_setRegion0Reserved__F
c374f9e0   ti_sdo_ipc_GateMP_start__E
c3743f20   ti_sdo_ipc_GateMP_start__F
c374fa00   ti_sdo_ipc_GateMP_stop__E
c3749260   ti_sdo_ipc_GateMP_stop__F
c3786964   ti_sdo_ipc_Ipc_E_internal__C
c37869dc   ti_sdo_ipc_Ipc_E_nameFailed__C
c3786b74   ti_sdo_ipc_Ipc_E_versionMismatch__C
c3782390   ti_sdo_ipc_Ipc_Module_State_0_procEntry__A
c3781864   ti_sdo_ipc_Ipc_Module__root__V
c3781868   ti_sdo_ipc_Ipc_Module__state__V
c3786bd2   ti_sdo_ipc_Ipc_generateSlaveDataForHost__C
c3746480   ti_sdo_ipc_Ipc_getMasterAddr__I
c374c480   ti_sdo_ipc_Ipc_getRegion0ReservedSize__I
c3746560   ti_sdo_ipc_Ipc_getSlaveAddr__I
c3786b8c   ti_sdo_ipc_Ipc_numUserFxns__C
c373cbc0   ti_sdo_ipc_Ipc_procSyncFinish__I
c37377e0   ti_sdo_ipc_Ipc_procSyncStart__I
c3786ba4   ti_sdo_ipc_Ipc_procSync__C
c3786c02   ti_sdo_ipc_Ipc_sr0MemorySetup__C
c3786c70   ti_sdo_ipc_Ipc_userFxns__A
c3786bbc   ti_sdo_ipc_Ipc_userFxns__C
c37414c0   ti_sdo_ipc_ListMP_Instance_finalize__F
c37317e0   ti_sdo_ipc_ListMP_Instance_init__F
c3786c1a   ti_sdo_ipc_ListMP_Module__id__C
c3781874   ti_sdo_ipc_ListMP_Module__root__V
c3781880   ti_sdo_ipc_ListMP_Module__state__V
c3786644   ti_sdo_ipc_ListMP_Object__DESC__C
c37862ac   ti_sdo_ipc_ListMP_Object__PARAMS__C
c3746640   ti_sdo_ipc_ListMP_Object__create__S
c374c4e0   ti_sdo_ipc_ListMP_Object__delete__S
c374fa20   ti_sdo_ipc_ListMP_Params__init__S
c3748040   ti_sdo_ipc_ListMP_elemClear__I
c3786bd4   ti_sdo_ipc_MessageQ_Instance_State_highList__O
c3786c04   ti_sdo_ipc_MessageQ_Instance_State_normalList__O
c37823e0   ti_sdo_ipc_MessageQ_Module_State_0_heaps__A
c3721830   ti_sdo_ipc_MessageQ_Module_State_0_transports__A
c3781884   ti_sdo_ipc_MessageQ_Module__root__V
c3781890   ti_sdo_ipc_MessageQ_Module__state__V
c374fa40   ti_sdo_ipc_MessageQ_Module_startup__E
c3742f60   ti_sdo_ipc_MessageQ_Module_startup__F
c3786c1c   ti_sdo_ipc_MessageQ_Object__count__C
c374fa60   ti_sdo_ipc_MessageQ_Object__get__S
c374fa80   ti_sdo_ipc_MessageQ_SetupTransportProxy_attach__E
c374faa0   ti_sdo_ipc_MessageQ_SetupTransportProxy_detach__E
c374fac0   ti_sdo_ipc_MessageQ_SetupTransportProxy_isRegistered__E
c374fae0   ti_sdo_ipc_MessageQ_SetupTransportProxy_sharedMemReq__E
c374fb00   ti_sdo_ipc_MessageQ_registerTransport__E
c374db80   ti_sdo_ipc_MessageQ_registerTransport__F
c374fb20   ti_sdo_ipc_MessageQ_unregisterTransport__E
c374dbc0   ti_sdo_ipc_MessageQ_unregisterTransport__F
c3744020   ti_sdo_ipc_Notify_Instance_finalize__F
c3741620   ti_sdo_ipc_Notify_Instance_init__F
c374fb40   ti_sdo_ipc_Notify_Module_GateProxy_enter__E
c374fb60   ti_sdo_ipc_Notify_Module_GateProxy_leave__E
c3782590   ti_sdo_ipc_Notify_Module_State_0_notifyHandles_0__A
c3782598   ti_sdo_ipc_Notify_Module_State_0_notifyHandles_1__A
c3782560   ti_sdo_ipc_Notify_Module_State_0_notifyHandles__A
c3786c5c   ti_sdo_ipc_Notify_Module__gateObj__C
c37818b0   ti_sdo_ipc_Notify_Module__root__V
c37818bc   ti_sdo_ipc_Notify_Module__state__V
c374fb80   ti_sdo_ipc_Notify_Module_startup__E
c374a520   ti_sdo_ipc_Notify_Module_startup__F
c3786664   ti_sdo_ipc_Notify_Object__DESC__C
c3786a28   ti_sdo_ipc_Notify_Object__PARAMS__C
c3744120   ti_sdo_ipc_Notify_Object__create__S
c374c540   ti_sdo_ipc_Notify_Object__delete__S
c3786c6c   ti_sdo_ipc_Notify_Object__heap__C
c374fba0   ti_sdo_ipc_Notify_SetupProxy_attach__E
c374fbc0   ti_sdo_ipc_Notify_SetupProxy_numIntLines__E
c374fbe0   ti_sdo_ipc_Notify_SetupProxy_sharedMemReq__E
c374fc00   ti_sdo_ipc_Notify_detach__E
c3746720   ti_sdo_ipc_Notify_detach__F
c3748100   ti_sdo_ipc_Notify_execMany__I
c374fc20   ti_sdo_ipc_Notify_exec__E
c374dc00   ti_sdo_ipc_Notify_exec__F
c3786cc8   ti_sdo_ipc_Notify_numEvents__C
c3786ed4   ti_sdo_ipc_Notify_numLines__C
c3786ccc   ti_sdo_ipc_Notify_sendEventPollCount__C
c3786cd0   ti_sdo_ipc_SharedRegion_INVALIDSRPTR__C
c3782010   ti_sdo_ipc_SharedRegion_Module_State_0_regions__A
c37818c4   ti_sdo_ipc_SharedRegion_Module__root__V
c37818c8   ti_sdo_ipc_SharedRegion_Module__state__V
c374fc40   ti_sdo_ipc_SharedRegion_attach__E
c3744220   ti_sdo_ipc_SharedRegion_attach__F
c374fc60   ti_sdo_ipc_SharedRegion_clearReservedMemory__E
c3744320   ti_sdo_ipc_SharedRegion_clearReservedMemory__F
c374fc80   ti_sdo_ipc_SharedRegion_detach__E
c37481c0   ti_sdo_ipc_SharedRegion_detach__F
c3786ed6   ti_sdo_ipc_SharedRegion_numEntries__C
c3786cd4   ti_sdo_ipc_SharedRegion_numOffsetBits__C
c3786cd8   ti_sdo_ipc_SharedRegion_offsetMask__C
c374fca0   ti_sdo_ipc_SharedRegion_reserveMemory__E
c3746800   ti_sdo_ipc_SharedRegion_reserveMemory__F
c374fcc0   ti_sdo_ipc_SharedRegion_resetInternalFields__E
c374dc40   ti_sdo_ipc_SharedRegion_resetInternalFields__F
c374fce0   ti_sdo_ipc_SharedRegion_start__E
c3742200   ti_sdo_ipc_SharedRegion_start__F
c374fd00   ti_sdo_ipc_SharedRegion_stop__E
c37468e0   ti_sdo_ipc_SharedRegion_stop__F
c3786ed8   ti_sdo_ipc_SharedRegion_translate__C
c37818cc   ti_sdo_ipc_family_da830_InterruptDsp_Module__root__V
c374dc80   ti_sdo_ipc_family_da830_InterruptDsp_intClear__E
c374fd20   ti_sdo_ipc_family_da830_InterruptDsp_intDisable__E
c374fd40   ti_sdo_ipc_family_da830_InterruptDsp_intEnable__E
c3748280   ti_sdo_ipc_family_da830_InterruptDsp_intRegister__E
c374dcc0   ti_sdo_ipc_family_da830_InterruptDsp_intSend__E
c374fd60   ti_sdo_ipc_family_da830_InterruptDsp_intUnregister__E
c37818ce   ti_sdo_ipc_family_da830_NotifySetup_Module__root__V
c3786cdc   ti_sdo_ipc_family_da830_NotifySetup_armRecvIntId0__C
c3786ce0   ti_sdo_ipc_family_da830_NotifySetup_armRecvIntId1__C
c373b420   ti_sdo_ipc_family_da830_NotifySetup_attach__E
c3786ce4   ti_sdo_ipc_family_da830_NotifySetup_dspIntVectId0__C
c3786ce8   ti_sdo_ipc_family_da830_NotifySetup_dspIntVectId1__C
c3786cec   ti_sdo_ipc_family_da830_NotifySetup_dspRecvIntId0__C
c3786cf0   ti_sdo_ipc_family_da830_NotifySetup_dspRecvIntId1__C
c374fd80   ti_sdo_ipc_family_da830_NotifySetup_numIntLines__E
c374a5a0   ti_sdo_ipc_family_da830_NotifySetup_sharedMemReq__E
c3786eda   ti_sdo_ipc_family_da830_NotifySetup_useSecondLine__C
c374dd00   ti_sdo_ipc_gates_GateMPSupportNull_Handle__label__S
c374fda0   ti_sdo_ipc_gates_GateMPSupportNull_Instance_init__F
c37862d8   ti_sdo_ipc_gates_GateMPSupportNull_Module__FXNS__C
c37818d0   ti_sdo_ipc_gates_GateMPSupportNull_Module__root__V
c3786684   ti_sdo_ipc_gates_GateMPSupportNull_Object__DESC__C
c3786498   ti_sdo_ipc_gates_GateMPSupportNull_Object__PARAMS__C
c374a620   ti_sdo_ipc_gates_GateMPSupportNull_Object__create__S
c374dd40   ti_sdo_ipc_gates_GateMPSupportNull_Object__delete__S
c374fdc0   ti_sdo_ipc_gates_GateMPSupportNull_Params__init__S
c374fde0   ti_sdo_ipc_gates_GateMPSupportNull_enter__E
c374fe00   ti_sdo_ipc_gates_GateMPSupportNull_getReservedMask__E
c374fe20   ti_sdo_ipc_gates_GateMPSupportNull_leave__E
c374fe40   ti_sdo_ipc_gates_GateMPSupportNull_query__E
c374fe60   ti_sdo_ipc_gates_GateMPSupportNull_query__F
c374fe80   ti_sdo_ipc_gates_GateMPSupportNull_sharedMemReq__E
c3786cf4   ti_sdo_ipc_gates_GatePeterson_E_gateRemotelyOpened__C
c374dd80   ti_sdo_ipc_gates_GatePeterson_Handle__label__S
c374c5a0   ti_sdo_ipc_gates_GatePeterson_Instance_finalize__F
c3739560   ti_sdo_ipc_gates_GatePeterson_Instance_init__F
c3786304   ti_sdo_ipc_gates_GatePeterson_Module__FXNS__C
c3786edc   ti_sdo_ipc_gates_GatePeterson_Module__id__C
c37818dc   ti_sdo_ipc_gates_GatePeterson_Module__root__V
c37866a4   ti_sdo_ipc_gates_GatePeterson_Object__DESC__C
c37864bc   ti_sdo_ipc_gates_GatePeterson_Object__PARAMS__C
c3744420   ti_sdo_ipc_gates_GatePeterson_Object__create__S
c374c600   ti_sdo_ipc_gates_GatePeterson_Object__delete__S
c374fea0   ti_sdo_ipc_gates_GatePeterson_Params__init__S
c37403a0   ti_sdo_ipc_gates_GatePeterson_enter__E
c374fec0   ti_sdo_ipc_gates_GatePeterson_getReservedMask__E
c3749300   ti_sdo_ipc_gates_GatePeterson_leave__E
c3748340   ti_sdo_ipc_gates_GatePeterson_postInit__I
c374fee0   ti_sdo_ipc_gates_GatePeterson_query__E
c374ff00   ti_sdo_ipc_gates_GatePeterson_query__F
c37469c0   ti_sdo_ipc_gates_GatePeterson_sharedMemReq__E
c3786cf8   ti_sdo_ipc_heaps_HeapMemMP_E_memory__C
c374ddc0   ti_sdo_ipc_heaps_HeapMemMP_Handle__label__S
c3741780   ti_sdo_ipc_heaps_HeapMemMP_Instance_finalize__F
c37304c0   ti_sdo_ipc_heaps_HeapMemMP_Instance_init__F
c378635c   ti_sdo_ipc_heaps_HeapMemMP_Module__FXNS__C
c3786ede   ti_sdo_ipc_heaps_HeapMemMP_Module__id__C
c37818e8   ti_sdo_ipc_heaps_HeapMemMP_Module__root__V
c37818f4   ti_sdo_ipc_heaps_HeapMemMP_Module__state__V
c37866c4   ti_sdo_ipc_heaps_HeapMemMP_Object__DESC__C
c3786220   ti_sdo_ipc_heaps_HeapMemMP_Object__PARAMS__C
c3746aa0   ti_sdo_ipc_heaps_HeapMemMP_Object__create__S
c374c660   ti_sdo_ipc_heaps_HeapMemMP_Object__delete__S
c374ff20   ti_sdo_ipc_heaps_HeapMemMP_Params__init__S
c37342c0   ti_sdo_ipc_heaps_HeapMemMP_alloc__E
c3734680   ti_sdo_ipc_heaps_HeapMemMP_free__E
c373b660   ti_sdo_ipc_heaps_HeapMemMP_getStats__E
c374ff40   ti_sdo_ipc_heaps_HeapMemMP_isBlocking__E
c374ff60   ti_sdo_ipc_heaps_HeapMemMP_isBlocking__F
c373e640   ti_sdo_ipc_heaps_HeapMemMP_postInit__I
c3786cfc   ti_sdo_ipc_interfaces_IGateMPSupport_Interface__BASE__C
c3786d00   ti_sdo_ipc_interfaces_IMessageQTransport_Interface__BASE__C
c3786d04   ti_sdo_ipc_interfaces_INotifyDriver_Interface__BASE__C
c374de00   ti_sdo_ipc_notifyDrivers_NotifyDriverShm_Handle__label__S
c37493a0   ti_sdo_ipc_notifyDrivers_NotifyDriverShm_Instance_finalize__F
c373cdc0   ti_sdo_ipc_notifyDrivers_NotifyDriverShm_Instance_init__F
c374ff80   ti_sdo_ipc_notifyDrivers_NotifyDriverShm_InterruptProxy_intClear__E
c374ffa0   ti_sdo_ipc_notifyDrivers_NotifyDriverShm_InterruptProxy_intDisable__E
c374ffc0   ti_sdo_ipc_notifyDrivers_NotifyDriverShm_InterruptProxy_intEnable__E
c374ffe0   ti_sdo_ipc_notifyDrivers_NotifyDriverShm_InterruptProxy_intRegister__E
c3750000   ti_sdo_ipc_notifyDrivers_NotifyDriverShm_InterruptProxy_intSend__E
c3750020   ti_sdo_ipc_notifyDrivers_NotifyDriverShm_InterruptProxy_intUnregister__E
c3786180   ti_sdo_ipc_notifyDrivers_NotifyDriverShm_Module__FXNS__C
c37818f8   ti_sdo_ipc_notifyDrivers_NotifyDriverShm_Module__root__V
c37866e4   ti_sdo_ipc_notifyDrivers_NotifyDriverShm_Object__DESC__C
c37861ec   ti_sdo_ipc_notifyDrivers_NotifyDriverShm_Object__PARAMS__C
c3746b80   ti_sdo_ipc_notifyDrivers_NotifyDriverShm_Object__create__S
c374c6c0   ti_sdo_ipc_notifyDrivers_NotifyDriverShm_Object__delete__S
c3786d08   ti_sdo_ipc_notifyDrivers_NotifyDriverShm_Object__heap__C
c3750040   ti_sdo_ipc_notifyDrivers_NotifyDriverShm_Params__init__S
c3742340   ti_sdo_ipc_notifyDrivers_NotifyDriverShm_disableEvent__E
c3750060   ti_sdo_ipc_notifyDrivers_NotifyDriverShm_disable__E
c374c720   ti_sdo_ipc_notifyDrivers_NotifyDriverShm_enableEvent__E
c3750080   ti_sdo_ipc_notifyDrivers_NotifyDriverShm_enable__E
c3740520   ti_sdo_ipc_notifyDrivers_NotifyDriverShm_isr__I
c373f400   ti_sdo_ipc_notifyDrivers_NotifyDriverShm_registerEvent__E
c373cfc0   ti_sdo_ipc_notifyDrivers_NotifyDriverShm_sendEvent__E
c374c780   ti_sdo_ipc_notifyDrivers_NotifyDriverShm_setNotifyHandle__E
c37500a0   ti_sdo_ipc_notifyDrivers_NotifyDriverShm_sharedMemReq__E
c374a6a0   ti_sdo_ipc_notifyDrivers_NotifyDriverShm_sharedMemReq__F
c373f5a0   ti_sdo_ipc_notifyDrivers_NotifyDriverShm_unregisterEvent__E
c374de40   ti_sdo_ipc_nsremote_NameServerRemoteNotify_Handle__label__S
c3786d0c   ti_sdo_ipc_nsremote_NameServerRemoteNotify_Instance_State_semMultiBlock__O
c3786d10   ti_sdo_ipc_nsremote_NameServerRemoteNotify_Instance_State_semRemoteWait__O
c3786d14   ti_sdo_ipc_nsremote_NameServerRemoteNotify_Instance_State_swiObj__O
c3744520   ti_sdo_ipc_nsremote_NameServerRemoteNotify_Instance_finalize__F
c3737ac0   ti_sdo_ipc_nsremote_NameServerRemoteNotify_Instance_init__F
c3786384   ti_sdo_ipc_nsremote_NameServerRemoteNotify_Module__FXNS__C
c3786ee0   ti_sdo_ipc_nsremote_NameServerRemoteNotify_Module__id__C
c3781904   ti_sdo_ipc_nsremote_NameServerRemoteNotify_Module__root__V
c3786704   ti_sdo_ipc_nsremote_NameServerRemoteNotify_Object__DESC__C
c3786724   ti_sdo_ipc_nsremote_NameServerRemoteNotify_Object__PARAMS__C
c3744620   ti_sdo_ipc_nsremote_NameServerRemoteNotify_Object__create__S
c374c7e0   ti_sdo_ipc_nsremote_NameServerRemoteNotify_Object__delete__S
c37500c0   ti_sdo_ipc_nsremote_NameServerRemoteNotify_Object__first__S
c37500e0   ti_sdo_ipc_nsremote_NameServerRemoteNotify_Object__next__S
c3750100   ti_sdo_ipc_nsremote_NameServerRemoteNotify_Params__init__S
c3748400   ti_sdo_ipc_nsremote_NameServerRemoteNotify_attach__E
c3750120   ti_sdo_ipc_nsremote_NameServerRemoteNotify_cbFxn__I
c374a720   ti_sdo_ipc_nsremote_NameServerRemoteNotify_detach__E
c3750140   ti_sdo_ipc_nsremote_NameServerRemoteNotify_get__E
c3732a00   ti_sdo_ipc_nsremote_NameServerRemoteNotify_get__F
c3786d18   ti_sdo_ipc_nsremote_NameServerRemoteNotify_notifyEventId__C
c374de80   ti_sdo_ipc_nsremote_NameServerRemoteNotify_sharedMemReq__E
c373c140   ti_sdo_ipc_nsremote_NameServerRemoteNotify_swiFxn__I
c3786d1c   ti_sdo_ipc_nsremote_NameServerRemoteNotify_timeout__C
c3782568   ti_sdo_ipc_transports_TransportShmSetup_Module_State_0_handles__A
c378191c   ti_sdo_ipc_transports_TransportShmSetup_Module__root__V
c3781920   ti_sdo_ipc_transports_TransportShmSetup_Module__state__V
c3744720   ti_sdo_ipc_transports_TransportShmSetup_attach__E
c3749440   ti_sdo_ipc_transports_TransportShmSetup_detach__E
c3750160   ti_sdo_ipc_transports_TransportShmSetup_isRegistered__E
c3786d20   ti_sdo_ipc_transports_TransportShmSetup_priority__C
c374c840   ti_sdo_ipc_transports_TransportShmSetup_sharedMemReq__E
c374dec0   ti_sdo_ipc_transports_TransportShm_Handle__label__S
c3786d24   ti_sdo_ipc_transports_TransportShm_Instance_State_swiObj__O
c37388a0   ti_sdo_ipc_transports_TransportShm_Instance_finalize__F
c372d3a0   ti_sdo_ipc_transports_TransportShm_Instance_init__F
c37863ac   ti_sdo_ipc_transports_TransportShm_Module__FXNS__C
c3786ee2   ti_sdo_ipc_transports_TransportShm_Module__id__C
c3781910   ti_sdo_ipc_transports_TransportShm_Module__root__V
c3786744   ti_sdo_ipc_transports_TransportShm_Object__DESC__C
c37863d4   ti_sdo_ipc_transports_TransportShm_Object__PARAMS__C
c3744820   ti_sdo_ipc_transports_TransportShm_Object__create__S
c374c8a0   ti_sdo_ipc_transports_TransportShm_Object__delete__S
c3750180   ti_sdo_ipc_transports_TransportShm_Params__init__S
c37501a0   ti_sdo_ipc_transports_TransportShm_close__E
c37501c0   ti_sdo_ipc_transports_TransportShm_close__F
c37501e0   ti_sdo_ipc_transports_TransportShm_control__E
c3750200   ti_sdo_ipc_transports_TransportShm_getStatus__E
c3786ee4   ti_sdo_ipc_transports_TransportShm_notifyEventId__C
c3750220   ti_sdo_ipc_transports_TransportShm_notifyFxn__I
c3750240   ti_sdo_ipc_transports_TransportShm_openByAddr__E
c3742480   ti_sdo_ipc_transports_TransportShm_openByAddr__F
c37425c0   ti_sdo_ipc_transports_TransportShm_put__E
c3750260   ti_sdo_ipc_transports_TransportShm_setErrFxn__E
c3750280   ti_sdo_ipc_transports_TransportShm_setErrFxn__F
c37502a0   ti_sdo_ipc_transports_TransportShm_sharedMemReq__E
c3743080   ti_sdo_ipc_transports_TransportShm_sharedMemReq__F
c374a7a0   ti_sdo_ipc_transports_TransportShm_swiFxn__I
c3786d28   ti_sdo_utils_INameServerRemote_Interface__BASE__C
c37502c0   ti_sdo_utils_List_Instance_init__F
c3781924   ti_sdo_utils_List_Module__root__V
c3786764   ti_sdo_utils_List_Object__DESC__C
c3786a40   ti_sdo_utils_List_Object__PARAMS__C
c374a820   ti_sdo_utils_List_Object__create__S
c374df00   ti_sdo_utils_List_Object__delete__S
c37502e0   ti_sdo_utils_List_Object__destruct__S
c3750300   ti_sdo_utils_List_Object__get__S
c3750320   ti_sdo_utils_List_Params__init__S
c3750340   ti_sdo_utils_List_elemClear__E
c3750360   ti_sdo_utils_List_empty__E
c374df40   ti_sdo_utils_List_get__E
c3750380   ti_sdo_utils_List_next__E
c374df80   ti_sdo_utils_List_putHead__E
c374dfc0   ti_sdo_utils_List_put__E
c37503a0   ti_sdo_utils_List_remove__E
c3781930   ti_sdo_utils_MultiProc_Module__root__V
c3781932   ti_sdo_utils_MultiProc_Module__state__V
c37503c0   ti_sdo_utils_MultiProc_getClusterId__E
c37503e0   ti_sdo_utils_MultiProc_getClusterId__F
c3786c90   ti_sdo_utils_MultiProc_nameList__A
c3786d2c   ti_sdo_utils_MultiProc_nameList__C
c3786ee6   ti_sdo_utils_MultiProc_numProcessors__C
c3786ee8   ti_sdo_utils_MultiProc_numProcsInCluster__C
c378194c   ti_sdo_utils_NameServerRemoteNull_Module__root__V
c3786d30   ti_sdo_utils_NameServer_E_entryExists__C
c3786d34   ti_sdo_utils_NameServer_E_maxReached__C
c3786d38   ti_sdo_utils_NameServer_Instance_State_freeList__O
c3786d3c   ti_sdo_utils_NameServer_Instance_State_nameList__O
c373dd00   ti_sdo_utils_NameServer_Instance_finalize__F
c373f740   ti_sdo_utils_NameServer_Instance_init__F
c3000000   ti_sdo_utils_NameServer_Module_State_0_nsRemoteHandle__A
c3786eea   ti_sdo_utils_NameServer_Module__id__C
c3781938   ti_sdo_utils_NameServer_Module__root__V
c374e000   ti_sdo_utils_NameServer_Module__startupDone__F
c3750400   ti_sdo_utils_NameServer_Module__startupDone__S
c3781944   ti_sdo_utils_NameServer_Module__state__V
c3750420   ti_sdo_utils_NameServer_Module_startup__E
c3746c60   ti_sdo_utils_NameServer_Module_startup__F
c3786784   ti_sdo_utils_NameServer_Object__DESC__C
c3786330   ti_sdo_utils_NameServer_Object__PARAMS__C
c3786d40   ti_sdo_utils_NameServer_Object__count__C
c3744920   ti_sdo_utils_NameServer_Object__create__S
c374c900   ti_sdo_utils_NameServer_Object__delete__S
c3750440   ti_sdo_utils_NameServer_Object__first__S
c374e040   ti_sdo_utils_NameServer_Object__get__S
c3786d44   ti_sdo_utils_NameServer_Object__heap__C
c3750460   ti_sdo_utils_NameServer_Object__next__S
c3781e50   ti_sdo_utils_NameServer_Object__table__V
c3750480   ti_sdo_utils_NameServer_Params__init__S
c37504a0   ti_sdo_utils_NameServer_SetupProxy_attach__E
c37504c0   ti_sdo_utils_NameServer_SetupProxy_detach__E
c37504e0   ti_sdo_utils_NameServer_SetupProxy_sharedMemReq__E
c3744a20   ti_sdo_utils_NameServer_findLocal__I
c37484c0   ti_sdo_utils_NameServer_postInit__I
c374e080   ti_sdo_utils_NameServer_registerRemoteDriver__E
c37418e0   ti_sdo_utils_NameServer_removeLocal__I
c3786eec   ti_sdo_utils_NameServer_singleProcessor__C
c374e0c0   ti_sdo_utils_NameServer_unregisterRemoteDriver__E
c3781958   ti_sysbios_BIOS_Module__root__V
c378195c   ti_sysbios_BIOS_Module__state__V
c3750500   ti_sysbios_BIOS_RtsGateProxy_enter__E
c3750520   ti_sysbios_BIOS_RtsGateProxy_leave__E
c374a8a0   ti_sysbios_BIOS_errorRaiseHook__I
c374a920   ti_sysbios_BIOS_exitFunc__I
c3750540   ti_sysbios_BIOS_getThreadType__E
c3786d48   ti_sysbios_BIOS_installedErrorHook__C
c3750560   ti_sysbios_BIOS_nullFunc__I
c374c960   ti_sysbios_BIOS_registerRTSLock__I
c374c9c0   ti_sysbios_BIOS_removeRTSLock__I
c374ca20   ti_sysbios_BIOS_rtsLock__I
c374e100   ti_sysbios_BIOS_rtsUnlock__I
c3750580   ti_sysbios_BIOS_setThreadType__E
c374e140   ti_sysbios_BIOS_startFunc__I
c37505a0   ti_sysbios_BIOS_start__E
c378197c   ti_sysbios_family_c62_IntrinsicsSupport_Module__root__V
c378197e   ti_sysbios_family_c62_TaskSupport_Module__root__V
c37505c0   ti_sysbios_family_c62_TaskSupport_Module__startupDone__S
c374da80   ti_sysbios_family_c62_TaskSupport_buildTaskStack
c37505e0   ti_sysbios_family_c62_TaskSupport_checkStack__E
c3750600   ti_sysbios_family_c62_TaskSupport_getStackAlignment__E
c374f600   ti_sysbios_family_c62_TaskSupport_glue
c3786d4c   ti_sysbios_family_c62_TaskSupport_stackAlignment__C
c374ca80   ti_sysbios_family_c62_TaskSupport_start__E
c374a2a0   ti_sysbios_family_c62_TaskSupport_swap__E
c3786d50   ti_sysbios_family_c64p_Cache_EMIFA_BASE__C
c3786d54   ti_sysbios_family_c64p_Cache_EMIFA_CFG__C
c3786d58   ti_sysbios_family_c64p_Cache_EMIFA_LENGTH__C
c3786d5c   ti_sysbios_family_c64p_Cache_EMIFB_BASE__C
c3786d60   ti_sysbios_family_c64p_Cache_EMIFB_CFG__C
c3786d64   ti_sysbios_family_c64p_Cache_EMIFB_LENGTH__C
c3786d68   ti_sysbios_family_c64p_Cache_EMIFC_BASE__C
c3786d6c   ti_sysbios_family_c64p_Cache_EMIFC_CFG__C
c3786d70   ti_sysbios_family_c64p_Cache_EMIFC_LENGTH__C
c3786d74   ti_sysbios_family_c64p_Cache_MAR0_31__C
c3786d78   ti_sysbios_family_c64p_Cache_MAR128_159__C
c3786d7c   ti_sysbios_family_c64p_Cache_MAR160_191__C
c3786d80   ti_sysbios_family_c64p_Cache_MAR192_223__C
c3786d84   ti_sysbios_family_c64p_Cache_MAR224_255__C
c3786d88   ti_sysbios_family_c64p_Cache_MAR32_63__C
c3786d8c   ti_sysbios_family_c64p_Cache_MAR64_95__C
c3786d90   ti_sysbios_family_c64p_Cache_MAR96_127__C
c3781980   ti_sysbios_family_c64p_Cache_Module__root__V
c3781984   ti_sysbios_family_c64p_Cache_Module__state__V
c3750620   ti_sysbios_family_c64p_Cache_Module_startup__E
c3746d40   ti_sysbios_family_c64p_Cache_Module_startup__F
c374cae0   ti_sysbios_family_c64p_Cache_all__I
c373e800   ti_sysbios_family_c64p_Cache_block__I
c3786c7c   ti_sysbios_family_c64p_Cache_initSize__C
c3750640   ti_sysbios_family_c64p_Cache_invL1pAll__E
c3750660   ti_sysbios_family_c64p_Cache_inv__E
c374cb40   ti_sysbios_family_c64p_Cache_marInit__I
c374cba0   ti_sysbios_family_c64p_Cache_setMar__E
c374cc00   ti_sysbios_family_c64p_Cache_setSize__E
c374cc60   ti_sysbios_family_c64p_Cache_wait__E
c3750680   ti_sysbios_family_c64p_Cache_wbInv__E
c37506a0   ti_sysbios_family_c64p_Cache_wb__E
c3786d94   ti_sysbios_family_c64p_Exception_E_exceptionMax__C
c3786d98   ti_sysbios_family_c64p_Exception_E_exceptionMin__C
c3786eee   ti_sysbios_family_c64p_Exception_Module__id__C
c3781988   ti_sysbios_family_c64p_Exception_Module__root__V
c378198c   ti_sysbios_family_c64p_Exception_Module__state__V
c37506c0   ti_sysbios_family_c64p_Exception_Module_startup__E
c37431a0   ti_sysbios_family_c64p_Exception_Module_startup__F
c373e9c0   ti_sysbios_family_c64p_Exception_decodeMpfsr__I
c3740220   ti_sysbios_family_c64p_Exception_dispatch__E
c3786ef0   ti_sysbios_family_c64p_Exception_enableExternalMPC__C
c3786ef2   ti_sysbios_family_c64p_Exception_enablePrint__C
c3786d9c   ti_sysbios_family_c64p_Exception_exceptionHook__C
c373dee0   ti_sysbios_family_c64p_Exception_externalHandler__I
c3786da0   ti_sysbios_family_c64p_Exception_externalHook__C
c372a3c0   ti_sysbios_family_c64p_Exception_handler__I
c373a3e0   ti_sysbios_family_c64p_Exception_internalHandler__I
c3786da4   ti_sysbios_family_c64p_Exception_internalHook__C
c3786da8   ti_sysbios_family_c64p_Exception_nmiHook__C
c3786ef4   ti_sysbios_family_c64p_Exception_useInternalBuffer__C
c3788000   ti_sysbios_family_c64p_Hwi0
c3786dac   ti_sysbios_family_c64p_Hwi_E_alreadyDefined__C
c3786db0   ti_sysbios_family_c64p_Hwi_E_handleNotFound__C
c3746e20   ti_sysbios_family_c64p_Hwi_Instance_finalize__F
c3746f00   ti_sysbios_family_c64p_Hwi_Instance_init__F
c3786ef6   ti_sysbios_family_c64p_Hwi_Module__id__C
c37819bc   ti_sysbios_family_c64p_Hwi_Module__root__V
c374e180   ti_sysbios_family_c64p_Hwi_Module__startupDone__F
c37506e0   ti_sysbios_family_c64p_Hwi_Module__startupDone__S
c37819c8   ti_sysbios_family_c64p_Hwi_Module__state__V
c3750700   ti_sysbios_family_c64p_Hwi_Module_startup__E
c3744b20   ti_sysbios_family_c64p_Hwi_Module_startup__F
c37867a4   ti_sysbios_family_c64p_Hwi_Object__DESC__C
c3786250   ti_sysbios_family_c64p_Hwi_Object__PARAMS__C
c3744c20   ti_sysbios_family_c64p_Hwi_Object__create__S
c374ccc0   ti_sysbios_family_c64p_Hwi_Object__delete__S
c37824d8   ti_sysbios_family_c64p_Hwi_Object__table__V
c3750720   ti_sysbios_family_c64p_Hwi_Params__init__S
c3750740   ti_sysbios_family_c64p_Hwi_clearInterrupt__E
c374e1c0   ti_sysbios_family_c64p_Hwi_disableInterrupt__E
c373c9c0   ti_sysbios_family_c64p_Hwi_dispatchAlways
c3744d20   ti_sysbios_family_c64p_Hwi_dispatchC__I
c374e200   ti_sysbios_family_c64p_Hwi_enableInterrupt__E
c37494e0   ti_sysbios_family_c64p_Hwi_eventMap__E
c3750760   ti_sysbios_family_c64p_Hwi_getHandle__E
c3749580   ti_sysbios_family_c64p_Hwi_getStackInfo__E
c3788000   ti_sysbios_family_c64p_Hwi_int0
c3788020   ti_sysbios_family_c64p_Hwi_int1
c3788140   ti_sysbios_family_c64p_Hwi_int10
c3788160   ti_sysbios_family_c64p_Hwi_int11
c3788180   ti_sysbios_family_c64p_Hwi_int12
c37881a0   ti_sysbios_family_c64p_Hwi_int13
c37881c0   ti_sysbios_family_c64p_Hwi_int14
c37881e0   ti_sysbios_family_c64p_Hwi_int15
c3788040   ti_sysbios_family_c64p_Hwi_int2
c3788060   ti_sysbios_family_c64p_Hwi_int3
c3788080   ti_sysbios_family_c64p_Hwi_int4
c37880a0   ti_sysbios_family_c64p_Hwi_int5
c37880c0   ti_sysbios_family_c64p_Hwi_int6
c37880e0   ti_sysbios_family_c64p_Hwi_int7
c3788100   ti_sysbios_family_c64p_Hwi_int8
c3788120   ti_sysbios_family_c64p_Hwi_int9
c3748fe0   ti_sysbios_family_c64p_Hwi_plug__E
c373c360   ti_sysbios_family_c64p_Hwi_reconfig__E
c3750780   ti_sysbios_family_c64p_Hwi_startup__E
c37507a0   ti_sysbios_family_c64p_Hwi_switchFromBootStack__E
c37507c0   ti_sysbios_family_c64p_Hwi_unPluggedInterrupt__I
c37507e0   ti_sysbios_family_c64p_TimestampProvider_Module_startup__E
c3750800   ti_sysbios_family_c64p_TimestampProvider_Module_startup__F
c3750820   ti_sysbios_family_c64p_TimestampProvider_get64__E
c3782570   ti_sysbios_family_c64p_primus_TimerSupport_Module_State_0_suspSrc__A
c3781a30   ti_sysbios_family_c64p_primus_TimerSupport_Module__root__V
c3781a34   ti_sysbios_family_c64p_primus_TimerSupport_Module__state__V
c374e240   ti_sysbios_family_c64p_primus_TimerSupport_enable__E
c374dac0   ti_sysbios_family_xxx_Hwi_switchToIsrStack
c374f620   ti_sysbios_family_xxx_Hwi_switchToTaskStack
c374e280   ti_sysbios_gates_GateAll_Handle__label__S
c3750840   ti_sysbios_gates_GateAll_Instance_init__F
c37864e0   ti_sysbios_gates_GateAll_Module__FXNS__C
c3781a38   ti_sysbios_gates_GateAll_Module__root__V
c37867c4   ti_sysbios_gates_GateAll_Object__DESC__C
c3786a58   ti_sysbios_gates_GateAll_Object__PARAMS__C
c374a9a0   ti_sysbios_gates_GateAll_Object__create__S
c374e2c0   ti_sysbios_gates_GateAll_Object__delete__S
c3782520   ti_sysbios_gates_GateAll_Object__table__V
c374cd20   ti_sysbios_gates_GateAll_enter__E
c374cd80   ti_sysbios_gates_GateAll_leave__E
c3750860   ti_sysbios_gates_GateAll_query__E
c3750880   ti_sysbios_gates_GateAll_query__F
c374e300   ti_sysbios_gates_GateHwi_Handle__label__S
c37508a0   ti_sysbios_gates_GateHwi_Instance_init__F
c3786504   ti_sysbios_gates_GateHwi_Module__FXNS__C
c3781a44   ti_sysbios_gates_GateHwi_Module__root__V
c37867e4   ti_sysbios_gates_GateHwi_Object__DESC__C
c3786a70   ti_sysbios_gates_GateHwi_Object__PARAMS__C
c374aa20   ti_sysbios_gates_GateHwi_Object__create__S
c374e340   ti_sysbios_gates_GateHwi_Object__delete__S
c37825a0   ti_sysbios_gates_GateHwi_Object__table__V
c37508c0   ti_sysbios_gates_GateHwi_enter__E
c37508e0   ti_sysbios_gates_GateHwi_leave__E
c3750900   ti_sysbios_gates_GateHwi_query__E
c3750920   ti_sysbios_gates_GateHwi_query__F
c374e380   ti_sysbios_gates_GateMutexPri_Handle__label__S
c3786db4   ti_sysbios_gates_GateMutexPri_Instance_State_pendQ__O
c3750940   ti_sysbios_gates_GateMutexPri_Instance_finalize__F
c374e3c0   ti_sysbios_gates_GateMutexPri_Instance_init__F
c3786528   ti_sysbios_gates_GateMutexPri_Module__FXNS__C
c3781a5c   ti_sysbios_gates_GateMutexPri_Module__root__V
c3786804   ti_sysbios_gates_GateMutexPri_Object__DESC__C
c3786a88   ti_sysbios_gates_GateMutexPri_Object__PARAMS__C
c374aaa0   ti_sysbios_gates_GateMutexPri_Object__create__S
c374cde0   ti_sysbios_gates_GateMutexPri_Object__delete__S
c374e400   ti_sysbios_gates_GateMutexPri_Object__destruct__S
c37824f0   ti_sysbios_gates_GateMutexPri_Object__table__V
c373c580   ti_sysbios_gates_GateMutexPri_enter__E
c3744e20   ti_sysbios_gates_GateMutexPri_leave__E
c3750960   ti_sysbios_gates_GateMutexPri_query__E
c3750980   ti_sysbios_gates_GateMutexPri_query__F
c374e440   ti_sysbios_gates_GateMutex_Handle__label__S
c3786db8   ti_sysbios_gates_GateMutex_Instance_State_sem__O
c37509a0   ti_sysbios_gates_GateMutex_Instance_finalize__F
c374ce40   ti_sysbios_gates_GateMutex_Instance_init__F
c378654c   ti_sysbios_gates_GateMutex_Module__FXNS__C
c3781a50   ti_sysbios_gates_GateMutex_Module__root__V
c3786824   ti_sysbios_gates_GateMutex_Object__DESC__C
c3786aa0   ti_sysbios_gates_GateMutex_Object__PARAMS__C
c374ab20   ti_sysbios_gates_GateMutex_Object__create__S
c374cea0   ti_sysbios_gates_GateMutex_Object__delete__S
c3782320   ti_sysbios_gates_GateMutex_Object__table__V
c3749620   ti_sysbios_gates_GateMutex_enter__E
c374e480   ti_sysbios_gates_GateMutex_leave__E
c37509c0   ti_sysbios_gates_GateMutex_query__E
c37509e0   ti_sysbios_gates_GateMutex_query__F
c374e4c0   ti_sysbios_gates_GateSwi_Handle__label__S
c3750a00   ti_sysbios_gates_GateSwi_Instance_init__F
c3786570   ti_sysbios_gates_GateSwi_Module__FXNS__C
c3781a68   ti_sysbios_gates_GateSwi_Module__root__V
c3786844   ti_sysbios_gates_GateSwi_Object__DESC__C
c3786ab8   ti_sysbios_gates_GateSwi_Object__PARAMS__C
c374aba0   ti_sysbios_gates_GateSwi_Object__create__S
c374e500   ti_sysbios_gates_GateSwi_Object__delete__S
c3782548   ti_sysbios_gates_GateSwi_Object__table__V
c3750a20   ti_sysbios_gates_GateSwi_enter__E
c3750a40   ti_sysbios_gates_GateSwi_leave__E
c3750a60   ti_sysbios_gates_GateSwi_query__E
c3750a80   ti_sysbios_gates_GateSwi_query__F
c3750aa0   ti_sysbios_hal_Cache_CacheProxy_inv__E
c3750ac0   ti_sysbios_hal_Cache_CacheProxy_wbInv__E
c3750ae0   ti_sysbios_hal_Cache_CacheProxy_wb__E
c3781a74   ti_sysbios_hal_Cache_Module__root__V
c3750b00   ti_sysbios_hal_Cache_inv__E
c3750b20   ti_sysbios_hal_Cache_wbInv__E
c3750b40   ti_sysbios_hal_Cache_wb__E
c3786dbc   ti_sysbios_hal_Hwi_E_stackOverflow__C
c3750b60   ti_sysbios_hal_Hwi_HwiProxy_Module__startupDone__S
c3750b80   ti_sysbios_hal_Hwi_HwiProxy_clearInterrupt__E
c3750ba0   ti_sysbios_hal_Hwi_HwiProxy_disableInterrupt__E
c3750bc0   ti_sysbios_hal_Hwi_HwiProxy_enableInterrupt__E
c3750be0   ti_sysbios_hal_Hwi_HwiProxy_getStackInfo__E
c3750c00   ti_sysbios_hal_Hwi_HwiProxy_startup__E
c3750c20   ti_sysbios_hal_Hwi_HwiProxy_switchFromBootStack__E
c3786ef8   ti_sysbios_hal_Hwi_Module__id__C
c3781a78   ti_sysbios_hal_Hwi_Module__root__V
c3750c40   ti_sysbios_hal_Hwi_Module_startup__E
c3750c60   ti_sysbios_hal_Hwi_Module_startup__F
c3782578   ti_sysbios_hal_Hwi_Object__table__V
c374ac20   ti_sysbios_hal_Hwi_checkStack
c374aca0   ti_sysbios_hal_Hwi_initStack
c3750c80   ti_sysbios_hal_Hwi_startup__E
c3781a84   ti_sysbios_hal_Timer_Module__root__V
c374e540   ti_sysbios_hal_Timer_Module__startupDone__F
c3750ca0   ti_sysbios_hal_Timer_Module__startupDone__S
c3750cc0   ti_sysbios_hal_Timer_Module_startup__E
c3750ce0   ti_sysbios_hal_Timer_Module_startup__F
c3782580   ti_sysbios_hal_Timer_Object__table__V
c3750d00   ti_sysbios_hal_Timer_TimerProxy_Module__startupDone__S
c3750d20   ti_sysbios_hal_Timer_TimerProxy_getExpiredCounts__E
c3750d40   ti_sysbios_hal_Timer_TimerProxy_getPeriod__E
c3750d60   ti_sysbios_hal_Timer_TimerProxy_setNextTick__E
c3750d80   ti_sysbios_hal_Timer_TimerProxy_startup__E
c3750da0   ti_sysbios_hal_Timer_startup__E
c3786dc0   ti_sysbios_heaps_HeapMem_E_memory__C
c374e580   ti_sysbios_heaps_HeapMem_Handle__label__S
c3000008   ti_sysbios_heaps_HeapMem_Instance_State_0_buf__A
c374ad20   ti_sysbios_heaps_HeapMem_Instance_init__F
c3750dc0   ti_sysbios_heaps_HeapMem_Module_GateProxy_enter__E
c3750de0   ti_sysbios_heaps_HeapMem_Module_GateProxy_leave__E
c3750e00   ti_sysbios_heaps_HeapMem_Module_GateProxy_query__E
c37863fc   ti_sysbios_heaps_HeapMem_Module__FXNS__C
c3786dc4   ti_sysbios_heaps_HeapMem_Module__gateObj__C
c3786efa   ti_sysbios_heaps_HeapMem_Module__id__C
c3781a90   ti_sysbios_heaps_HeapMem_Module__root__V
c3786864   ti_sysbios_heaps_HeapMem_Object__DESC__C
c3786594   ti_sysbios_heaps_HeapMem_Object__PARAMS__C
c3786dc8   ti_sysbios_heaps_HeapMem_Object__count__C
c374ada0   ti_sysbios_heaps_HeapMem_Object__create__S
c374e5c0   ti_sysbios_heaps_HeapMem_Object__delete__S
c374e600   ti_sysbios_heaps_HeapMem_Object__get__S
c3782508   ti_sysbios_heaps_HeapMem_Object__table__V
c37406a0   ti_sysbios_heaps_HeapMem_alloc__E
c3742700   ti_sysbios_heaps_HeapMem_free__E
c3748580   ti_sysbios_heaps_HeapMem_getStats__E
c37496c0   ti_sysbios_heaps_HeapMem_init__I
c3750e20   ti_sysbios_heaps_HeapMem_isBlocking__E
c3786dcc   ti_sysbios_heaps_HeapMem_reqAlign__C
c3786dd0   ti_sysbios_knl_Clock_Module_State_clockQ__O
c3781a9c   ti_sysbios_knl_Clock_Module__root__V
c3781aa8   ti_sysbios_knl_Clock_Module__state__V
c3750e40   ti_sysbios_knl_Clock_Module_startup__E
c374ae20   ti_sysbios_knl_Clock_Module_startup__F
c374aea0   ti_sysbios_knl_Clock_doTick__I
c374af20   ti_sysbios_knl_Clock_getTicks__E
c3750e60   ti_sysbios_knl_Clock_logTick__E
c374cf00   ti_sysbios_knl_Clock_setupTimerToSkipTicks__E
c3744f20   ti_sysbios_knl_Clock_startI__E
c3786dd4   ti_sysbios_knl_Clock_tickMode__C
c3786dd8   ti_sysbios_knl_Clock_tickSource__C
c37432c0   ti_sysbios_knl_Clock_workFunc__E
c3781ad0   ti_sysbios_knl_Idle_Module__root__V
c3786de0   ti_sysbios_knl_Idle_coreList__A
c3786c98   ti_sysbios_knl_Idle_coreList__C
c3786de8   ti_sysbios_knl_Idle_funcList__A
c3786ca0   ti_sysbios_knl_Idle_funcList__C
c3750e80   ti_sysbios_knl_Idle_loop__E
c3749760   ti_sysbios_knl_Idle_run__E
c3781ad2   ti_sysbios_knl_Intrinsics_Module__root__V
c3750ea0   ti_sysbios_knl_Queue_Instance_init__F
c3781ad4   ti_sysbios_knl_Queue_Module__root__V
c3786884   ti_sysbios_knl_Queue_Object__DESC__C
c3786ad0   ti_sysbios_knl_Queue_Object__PARAMS__C
c374afa0   ti_sysbios_knl_Queue_Object__create__S
c3750ec0   ti_sysbios_knl_Queue_Object__destruct__S
c3750ee0   ti_sysbios_knl_Queue_Object__get__S
c3750f00   ti_sysbios_knl_Queue_empty__E
c374e640   ti_sysbios_knl_Queue_put__E
c3786ddc   ti_sysbios_knl_Semaphore_Instance_State_pendQ__O
c3750f20   ti_sysbios_knl_Semaphore_Instance_finalize__F
c374cf60   ti_sysbios_knl_Semaphore_Instance_init__F
c3781ae0   ti_sysbios_knl_Semaphore_Module__root__V
c37868a4   ti_sysbios_knl_Semaphore_Object__DESC__C
c37865b8   ti_sysbios_knl_Semaphore_Object__PARAMS__C
c374b020   ti_sysbios_knl_Semaphore_Object__create__S
c374cfc0   ti_sysbios_knl_Semaphore_Object__delete__S
c374e680   ti_sysbios_knl_Semaphore_Object__destruct__S
c3750f40   ti_sysbios_knl_Semaphore_Params__init__S
c3749800   ti_sysbios_knl_Semaphore_pendTimeout__I
c3736f00   ti_sysbios_knl_Semaphore_pend__E
c3745020   ti_sysbios_knl_Semaphore_post__E
c3750f60   ti_sysbios_knl_Swi_Instance_finalize__F
c3748640   ti_sysbios_knl_Swi_Instance_init__F
c37820a0   ti_sysbios_knl_Swi_Module_State_0_readyQ__A
c3781aec   ti_sysbios_knl_Swi_Module__root__V
c3781af8   ti_sysbios_knl_Swi_Module__state__V
c3750f80   ti_sysbios_knl_Swi_Module_startup__E
c374d020   ti_sysbios_knl_Swi_Module_startup__F
c37868c4   ti_sysbios_knl_Swi_Object__DESC__C
c3786424   ti_sysbios_knl_Swi_Object__PARAMS__C
c3786de4   ti_sysbios_knl_Swi_Object__count__C
c3745120   ti_sysbios_knl_Swi_Object__create__S
c374d080   ti_sysbios_knl_Swi_Object__delete__S
c374e6c0   ti_sysbios_knl_Swi_Object__destruct__S
c374e700   ti_sysbios_knl_Swi_Object__get__S
c3782360   ti_sysbios_knl_Swi_Object__table__V
c3750fa0   ti_sysbios_knl_Swi_Params__init__S
c3750fc0   ti_sysbios_knl_Swi_disable__E
c3786dec   ti_sysbios_knl_Swi_numPriorities__C
c374b0a0   ti_sysbios_knl_Swi_post__E
c3745220   ti_sysbios_knl_Swi_restoreHwi__E
c37498a0   ti_sysbios_knl_Swi_restore__E
c3748700   ti_sysbios_knl_Swi_run__I
c3740820   ti_sysbios_knl_Swi_schedule__I
c3750fe0   ti_sysbios_knl_Swi_startup__E
c3786df0   ti_sysbios_knl_Task_E_deleteNotAllowed__C
c3786df4   ti_sysbios_knl_Task_E_spOutOfBounds__C
c3786df8   ti_sysbios_knl_Task_E_stackOverflow__C
c3700008   ti_sysbios_knl_Task_Instance_State_0_hookEnv__A
c3721010   ti_sysbios_knl_Task_Instance_State_0_stack__A
c3737200   ti_sysbios_knl_Task_Instance_finalize__F
c373e0c0   ti_sysbios_knl_Task_Instance_init__F
c37825a8   ti_sysbios_knl_Task_Module_State_0_idleTask__A
c3782120   ti_sysbios_knl_Task_Module_State_0_readyQ__A
c3786dfc   ti_sysbios_knl_Task_Module_State_inactiveQ__O
c3786e00   ti_sysbios_knl_Task_Module_State_terminatedQ__O
c3786efc   ti_sysbios_knl_Task_Module__id__C
c3781b14   ti_sysbios_knl_Task_Module__root__V
c3781b20   ti_sysbios_knl_Task_Module__state__V
c3751000   ti_sysbios_knl_Task_Module_startup__E
c3742840   ti_sysbios_knl_Task_Module_startup__F
c37868e4   ti_sysbios_knl_Task_Object__DESC__C
c3786108   ti_sysbios_knl_Task_Object__PARAMS__C
c3786e04   ti_sysbios_knl_Task_Object__count__C
c3745320   ti_sysbios_knl_Task_Object__create__S
c374d0e0   ti_sysbios_knl_Task_Object__delete__S
c3751020   ti_sysbios_knl_Task_Object__first__S
c374e740   ti_sysbios_knl_Task_Object__get__S
c3786e08   ti_sysbios_knl_Task_Object__heap__C
c3751040   ti_sysbios_knl_Task_Object__next__S
c3782200   ti_sysbios_knl_Task_Object__table__V
c3751060   ti_sysbios_knl_Task_Params__init__S
c3751080   ti_sysbios_knl_Task_SupportProxy_Module__startupDone__S
c37510a0   ti_sysbios_knl_Task_SupportProxy_checkStack__E
c37510c0   ti_sysbios_knl_Task_SupportProxy_getStackAlignment__E
c37510e0   ti_sysbios_knl_Task_SupportProxy_start__E
c3751100   ti_sysbios_knl_Task_SupportProxy_swap__E
c3786e0c   ti_sysbios_knl_Task_allBlockedFunc__C
c37487c0   ti_sysbios_knl_Task_allBlockedFunction__I
c373e2a0   ti_sysbios_knl_Task_checkStacks__E
c3786e10   ti_sysbios_knl_Task_defaultStackHeap__C
c3786e14   ti_sysbios_knl_Task_defaultStackSize__C
c3786efe   ti_sysbios_knl_Task_deleteTerminatedTasks__C
c3751120   ti_sysbios_knl_Task_disable__E
c374d140   ti_sysbios_knl_Task_enter__I
c373eb80   ti_sysbios_knl_Task_exit__E
c3751140   ti_sysbios_knl_Task_getPri__E
c3786ae8   ti_sysbios_knl_Task_hooks__A
c3786ca8   ti_sysbios_knl_Task_hooks__C
c3786f00   ti_sysbios_knl_Task_initStackFlag__C
c3786e18   ti_sysbios_knl_Task_numConstructedTasks__C
c373ed40   ti_sysbios_knl_Task_postInit__I
c374b120   ti_sysbios_knl_Task_processVitalTaskFlag__I
c374b1a0   ti_sysbios_knl_Task_restoreHwi__E
c374b220   ti_sysbios_knl_Task_restore__E
c3741a40   ti_sysbios_knl_Task_schedule__I
c3751160   ti_sysbios_knl_Task_self__E
c37409a0   ti_sysbios_knl_Task_setPri__E
c374d1a0   ti_sysbios_knl_Task_sleepTimeout__I
c3742980   ti_sysbios_knl_Task_sleep__E
c3741ba0   ti_sysbios_knl_Task_startCore__E
c3751180   ti_sysbios_knl_Task_startup__E
c3746fe0   ti_sysbios_knl_Task_unblockI__E
c374b2a0   ti_sysbios_knl_Task_yield__E
c3781b64   ti_sysbios_syncs_SyncSem_Module__root__V
c3786e1c   ti_sysbios_timers_timer64_Timer_E_cannotSupport__C
c37821a0   ti_sysbios_timers_timer64_Timer_Module_State_0_device__A
c3782400   ti_sysbios_timers_timer64_Timer_Module_State_0_gctrl__A
c3782420   ti_sysbios_timers_timer64_Timer_Module_State_0_handles__A
c3782440   ti_sysbios_timers_timer64_Timer_Module_State_0_intFreqs__A
c3786f02   ti_sysbios_timers_timer64_Timer_Module__id__C
c3781b70   ti_sysbios_timers_timer64_Timer_Module__root__V
c374e780   ti_sysbios_timers_timer64_Timer_Module__startupDone__F
c37511a0   ti_sysbios_timers_timer64_Timer_Module__startupDone__S
c3781b7c   ti_sysbios_timers_timer64_Timer_Module__state__V
c37511c0   ti_sysbios_timers_timer64_Timer_Module_startup__E
c37385e0   ti_sysbios_timers_timer64_Timer_Module_startup__F
c3782250   ti_sysbios_timers_timer64_Timer_Object__table__V
c37511e0   ti_sysbios_timers_timer64_Timer_TimerSupportProxy_enable__E
c3786e20   ti_sysbios_timers_timer64_Timer_anyMask__C
c3738b40   ti_sysbios_timers_timer64_Timer_deviceConfig__I
c3786e24   ti_sysbios_timers_timer64_Timer_freqDivisor__C
c374b320   ti_sysbios_timers_timer64_Timer_getExpiredCounts__E
c374b3a0   ti_sysbios_timers_timer64_Timer_getPeriod__E
c3745420   ti_sysbios_timers_timer64_Timer_initDevice__I
c3786e28   ti_sysbios_timers_timer64_Timer_numLocalTimers__C
c3786e2c   ti_sysbios_timers_timer64_Timer_numTimerDevices__C
c3751200   ti_sysbios_timers_timer64_Timer_setNextTick__E
c373a640   ti_sysbios_timers_timer64_Timer_setPeriodMicroSecs__E
c373f8e0   ti_sysbios_timers_timer64_Timer_start__E
c3786f04   ti_sysbios_timers_timer64_Timer_startupNeeded__C
c3748880   ti_sysbios_timers_timer64_Timer_startup__E
c3749940   ti_sysbios_timers_timer64_Timer_stop__E
c3786e30   ti_sysbios_xdcruntime_GateThreadSupport_Instance_State_gate__O
c3751220   ti_sysbios_xdcruntime_GateThreadSupport_Instance_finalize__F
c374e7c0   ti_sysbios_xdcruntime_GateThreadSupport_Instance_init__F
c3781b90   ti_sysbios_xdcruntime_GateThreadSupport_Module__root__V
c3786904   ti_sysbios_xdcruntime_GateThreadSupport_Object__DESC__C
c3786b00   ti_sysbios_xdcruntime_GateThreadSupport_Object__PARAMS__C
c374b420   ti_sysbios_xdcruntime_GateThreadSupport_Object__create__S
c374d200   ti_sysbios_xdcruntime_GateThreadSupport_Object__delete__S
c3751240   ti_sysbios_xdcruntime_GateThreadSupport_enter__E
c3751260   ti_sysbios_xdcruntime_GateThreadSupport_enter__F
c3751280   ti_sysbios_xdcruntime_GateThreadSupport_leave__E
c37512a0   ti_sysbios_xdcruntime_GateThreadSupport_leave__F
c37512c0   ti_sysbios_xdcruntime_GateThreadSupport_query__E
c37512e0   ti_sysbios_xdcruntime_GateThreadSupport_query__F
c374d260   ti_syslink_ipc_rtos_Syslink_attach
c374e800   ti_syslink_ipc_rtos_Syslink_detach
c374d2c0   writemsg
c3786e34   xdc_runtime_Assert_E_assertFailed__C
c37499e0   xdc_runtime_Assert_raise__I
c3786e38   xdc_runtime_Core_A_initializedParams__C
c3786e3c   xdc_runtime_Core_Module__diagsEnabled__C
c3786e40   xdc_runtime_Core_Module__diagsIncluded__C
c3786e44   xdc_runtime_Core_Module__diagsMask__C
c3786f06   xdc_runtime_Core_Module__id__C
c374b4a0   xdc_runtime_Core_assignLabel__I
c374b520   xdc_runtime_Core_assignParams__I
c373c7a0   xdc_runtime_Core_createObject__I
c3745520   xdc_runtime_Core_deleteObject__I
c3781b9c   xdc_runtime_Defaults_Module__root__V
c3786e48   xdc_runtime_Error_E_memory__C
c3786e4c   xdc_runtime_Error_Module__diagsEnabled__C
c3786e50   xdc_runtime_Error_Module__diagsIncluded__C
c3786e54   xdc_runtime_Error_Module__diagsMask__C
c3786f08   xdc_runtime_Error_Module__loggerDefined__C
c3786e58   xdc_runtime_Error_Module__loggerFxn8__C
c3786e5c   xdc_runtime_Error_Module__loggerObj__C
c3781b9e   xdc_runtime_Error_Module__root__V
c3781ba0   xdc_runtime_Error_Module__state__V
c3751300   xdc_runtime_Error_check__E
c374e840   xdc_runtime_Error_check__F
c3751320   xdc_runtime_Error_init__E
c374e880   xdc_runtime_Error_init__F
c3786f0a   xdc_runtime_Error_maxDepth__C
c3786e60   xdc_runtime_Error_policy__C
c3751340   xdc_runtime_Error_print__E
c37470c0   xdc_runtime_Error_print__F
c3786e64   xdc_runtime_Error_raiseHook__C
c3751360   xdc_runtime_Error_raiseX__E
c37397e0   xdc_runtime_Error_raiseX__F
c374e8c0   xdc_runtime_GateNull_Handle__label__S
c37865dc   xdc_runtime_GateNull_Module__FXNS__C
c3781ba4   xdc_runtime_GateNull_Module__root__V
c3786924   xdc_runtime_GateNull_Object__DESC__C
c3786b18   xdc_runtime_GateNull_Object__PARAMS__C
c374d320   xdc_runtime_GateNull_Object__create__S
c374e900   xdc_runtime_GateNull_Object__delete__S
c37825b0   xdc_runtime_GateNull_Object__table__V
c3751380   xdc_runtime_GateNull_enter__E
c37513a0   xdc_runtime_GateNull_enter__F
c37513c0   xdc_runtime_GateNull_leave__E
c37513e0   xdc_runtime_GateNull_leave__F
c3751400   xdc_runtime_GateNull_query__E
c3751420   xdc_runtime_GateNull_query__F
c3751440   xdc_runtime_Gate_enterSystem__E
c3751460   xdc_runtime_Gate_enterSystem__F
c3751480   xdc_runtime_Gate_leaveSystem__E
c37514a0   xdc_runtime_Gate_leaveSystem__F
c3786e68   xdc_runtime_IFilterLogger_Interface__BASE__C
c3786e6c   xdc_runtime_IGateProvider_Interface__BASE__C
c3786e70   xdc_runtime_IHeap_Interface__BASE__C
c3786e74   xdc_runtime_ILogger_Interface__BASE__C
c3786e78   xdc_runtime_IModule_Interface__BASE__C
c3786e7c   xdc_runtime_Log_L_error__C
c3786e80   xdc_runtime_LoggerBuf_E_badLevel__C
c374e940   xdc_runtime_LoggerBuf_Handle__label__S
c3700010   xdc_runtime_LoggerBuf_Instance_State_0_entryArr__A
c374e980   xdc_runtime_LoggerBuf_Instance_finalize__F
c3748940   xdc_runtime_LoggerBuf_Instance_init__F
c3751560   xdc_runtime_LoggerBuf_Module_GateProxy_enter__E
c3751580   xdc_runtime_LoggerBuf_Module_GateProxy_leave__E
c3786144   xdc_runtime_LoggerBuf_Module__FXNS__C
c3786e84   xdc_runtime_LoggerBuf_Module__gateObj__C
c3786f0c   xdc_runtime_LoggerBuf_Module__id__C
c3781bac   xdc_runtime_LoggerBuf_Module__root__V
c3781bb4   xdc_runtime_LoggerBuf_Module__state__V
c37515a0   xdc_runtime_LoggerBuf_Module_startup__E
c3749a80   xdc_runtime_LoggerBuf_Module_startup__F
c3786944   xdc_runtime_LoggerBuf_Object__DESC__C
c378644c   xdc_runtime_LoggerBuf_Object__PARAMS__C
c3786e88   xdc_runtime_LoggerBuf_Object__count__C
c37471a0   xdc_runtime_LoggerBuf_Object__create__S
c374d380   xdc_runtime_LoggerBuf_Object__delete__S
c374e9c0   xdc_runtime_LoggerBuf_Object__get__S
c37823b8   xdc_runtime_LoggerBuf_Object__table__V
c37515c0   xdc_runtime_LoggerBuf_TimestampProxy_get64__E
c37515e0   xdc_runtime_LoggerBuf_disable__E
c3751600   xdc_runtime_LoggerBuf_disable__F
c3751620   xdc_runtime_LoggerBuf_enable__E
c3751640   xdc_runtime_LoggerBuf_enable__F
c3786f0e   xdc_runtime_LoggerBuf_filterByLevel__C
c374b5a0   xdc_runtime_LoggerBuf_filterOutEvent__I
c3751660   xdc_runtime_LoggerBuf_getFilterLevel__E
c3745620   xdc_runtime_LoggerBuf_getFilterLevel__F
c3751680   xdc_runtime_LoggerBuf_setFilterLevel__E
c37433e0   xdc_runtime_LoggerBuf_setFilterLevel__F
c3786e8c   xdc_runtime_LoggerBuf_statusLogger__C
c37516a0   xdc_runtime_LoggerBuf_write0__E
c374ea00   xdc_runtime_LoggerBuf_write0__F
c37516c0   xdc_runtime_LoggerBuf_write1__E
c37516e0   xdc_runtime_LoggerBuf_write1__F
c3751700   xdc_runtime_LoggerBuf_write2__E
c3751720   xdc_runtime_LoggerBuf_write2__F
c3751740   xdc_runtime_LoggerBuf_write4__E
c373fa80   xdc_runtime_LoggerBuf_write4__F
c374ea40   xdc_runtime_LoggerBuf_write8__E
c373b8a0   xdc_runtime_LoggerBuf_write8__F
c3781bba   xdc_runtime_Main_Module__root__V
c3751760   xdc_runtime_Memory_HeapProxy_alloc__E
c3751780   xdc_runtime_Memory_HeapProxy_free__E
c3786f10   xdc_runtime_Memory_Module__id__C
c3781bbc   xdc_runtime_Memory_Module__state__V
c37517a0   xdc_runtime_Memory_alloc__E
c3747280   xdc_runtime_Memory_alloc__F
c37517c0   xdc_runtime_Memory_calloc__E
c374d3e0   xdc_runtime_Memory_calloc__F
c3786e90   xdc_runtime_Memory_defaultHeapInstance__C
c37517e0   xdc_runtime_Memory_free__E
c374ea80   xdc_runtime_Memory_free__F
c3751800   xdc_runtime_Memory_getMaxDefaultTypeAlign__E
c3751820   xdc_runtime_Memory_getMaxDefaultTypeAlign__F
c3751840   xdc_runtime_Memory_valloc__E
c374d440   xdc_runtime_Memory_valloc__F
c3781bc0   xdc_runtime_Registry_Module__root__V
c3781bc4   xdc_runtime_Registry_Module__state__V
c3748a00   xdc_runtime_Registry_findById__E
c374eac0   xdc_runtime_Registry_findById__F
c3751860   xdc_runtime_Startup_Module__startupDone__S
c3781bcc   xdc_runtime_Startup_Module__state__V
00000001   xdc_runtime_Startup__EXECFXN__C
00000001   xdc_runtime_Startup__RESETFXN__C
c3786e94   xdc_runtime_Startup_execImpl__C
c3751880   xdc_runtime_Startup_exec__E
c3745720   xdc_runtime_Startup_exec__F
c37518a0   xdc_runtime_Startup_exec__I
c3786cb0   xdc_runtime_Startup_firstFxns__A
c3786cb8   xdc_runtime_Startup_firstFxns__C
c3786e98   xdc_runtime_Startup_lastFxns__A
c3786cc0   xdc_runtime_Startup_lastFxns__C
c3786e9c   xdc_runtime_Startup_maxPasses__C
c37518c0   xdc_runtime_Startup_reset__I
c3786968   xdc_runtime_Startup_sfxnRts__A
c3786ea0   xdc_runtime_Startup_sfxnRts__C
c37860c8   xdc_runtime_Startup_sfxnTab__A
c3786ea4   xdc_runtime_Startup_sfxnTab__C
c373a8a0   xdc_runtime_Startup_startMods__I
c3701010   xdc_runtime_SysMin_Module_State_0_outbuf__A
c3781bd4   xdc_runtime_SysMin_Module__state__V
c37518e0   xdc_runtime_SysMin_Module_startup__E
c374d4a0   xdc_runtime_SysMin_Module_startup__F
c3751900   xdc_runtime_SysMin_abort__E
c3749b20   xdc_runtime_SysMin_abort__F
c3786ea8   xdc_runtime_SysMin_bufSize__C
c3751920   xdc_runtime_SysMin_exit__E
c374d500   xdc_runtime_SysMin_exit__F
c3786f12   xdc_runtime_SysMin_flushAtExit__C
c3749bc0   xdc_runtime_SysMin_flush__F
c3786eac   xdc_runtime_SysMin_outputFunc__C
c374d560   xdc_runtime_SysMin_output__I
c3751940   xdc_runtime_SysMin_putch__E
c3749c60   xdc_runtime_SysMin_putch__F
c3751960   xdc_runtime_SysMin_ready__E
c3751980   xdc_runtime_SysMin_ready__F
c37519a0   xdc_runtime_System_Module_GateProxy_enter__E
c37519c0   xdc_runtime_System_Module_GateProxy_leave__E
c3782460   xdc_runtime_System_Module_State_0_atexitHandlers__A
c3786eb0   xdc_runtime_System_Module__gateObj__C
c3781be0   xdc_runtime_System_Module__state__V
c37519e0   xdc_runtime_System_Module_startup__E
c3751a00   xdc_runtime_System_Module_startup__F
c3751a20   xdc_runtime_System_SupportProxy_abort__E
c3751a40   xdc_runtime_System_SupportProxy_exit__E
c3751a60   xdc_runtime_System_SupportProxy_putch__E
c3751a80   xdc_runtime_System_SupportProxy_ready__E
c3751aa0   xdc_runtime_System_abort__E
c374eb00   xdc_runtime_System_abort__F
c374eb40   xdc_runtime_System_aprintf__E
c374d5c0   xdc_runtime_System_aprintf_va__F
c3751ac0   xdc_runtime_System_atexit__E
c374b620   xdc_runtime_System_atexit__F
c372ac60   xdc_runtime_System_doPrint__I
c3751ae0   xdc_runtime_System_exit__E
c3751b00   xdc_runtime_System_exit__F
c3786eb4   xdc_runtime_System_extendFxn__C
c3748ac0   xdc_runtime_System_formatNum__I
c3751b20   xdc_runtime_System_lastFxn__I
c3786eb8   xdc_runtime_System_maxAtexitHandlers__C
c373ab00   xdc_runtime_System_printfExtend__I
c374eb80   xdc_runtime_System_printf__E
c374d620   xdc_runtime_System_printf_va__F
c374b6a0   xdc_runtime_System_putchar__I
c374b720   xdc_runtime_System_rtsExit__I
c3751b40   xdc_runtime_System_vsnprintf__E
c3751b60   xdc_runtime_System_vsnprintf__F
c3781bec   xdc_runtime_Text_Module__state__V
c3786f14   xdc_runtime_Text_charCnt__C
c37825b8   xdc_runtime_Text_charTab__A
c3786ebc   xdc_runtime_Text_charTab__C
c3751b80   xdc_runtime_Text_cordText__E
c374d680   xdc_runtime_Text_cordText__F
c3786f16   xdc_runtime_Text_isLoaded__C
c3786ec0   xdc_runtime_Text_nameEmpty__C
c3786ec4   xdc_runtime_Text_nameStatic__C
c3786ec8   xdc_runtime_Text_nameUnknown__C
c3785ca8   xdc_runtime_Text_nodeTab__A
c3786ecc   xdc_runtime_Text_nodeTab__C
c374b7a0   xdc_runtime_Text_printVisFxn__I
c3751ba0   xdc_runtime_Text_putLab__E
c3742ac0   xdc_runtime_Text_putLab__F
c3743500   xdc_runtime_Text_putMod__F
c3751bc0   xdc_runtime_Text_putSite__E
c373ef00   xdc_runtime_Text_putSite__F
c3786f18   xdc_runtime_Text_registryModsLastId__C
c3751be0   xdc_runtime_Text_ropeText__E
c374ebc0   xdc_runtime_Text_ropeText__F
c3786f1a   xdc_runtime_Text_unnamedModsLastId__C
c3745820   xdc_runtime_Text_visitRope2__I
c3786ed0   xdc_runtime_Text_visitRopeFxn__C
c3751c00   xdc_runtime_Text_visitRope__I
c3749d00   xdc_runtime_Text_xprintf__I
c374ec00   xdc_runtime_knl_GateThread_Handle__label__S
c374ec40   xdc_runtime_knl_GateThread_Instance_finalize__F
c374ec80   xdc_runtime_knl_GateThread_Instance_init__F
c3786600   xdc_runtime_knl_GateThread_Module__FXNS__C
c3781bf4   xdc_runtime_knl_GateThread_Module__root__V
c3751c20   xdc_runtime_knl_GateThread_Module__startupDone__S
c3786988   xdc_runtime_knl_GateThread_Object__DESC__C
c3786b30   xdc_runtime_knl_GateThread_Object__PARAMS__C
c3747360   xdc_runtime_knl_GateThread_Object__create__S
c374d6e0   xdc_runtime_knl_GateThread_Object__delete__S
c3751c40   xdc_runtime_knl_GateThread_Proxy_Object__create__S
c3751c60   xdc_runtime_knl_GateThread_Proxy_Object__delete__S
c3751c80   xdc_runtime_knl_GateThread_Proxy_enter__E
c3751ca0   xdc_runtime_knl_GateThread_Proxy_leave__E
c3751cc0   xdc_runtime_knl_GateThread_Proxy_query__E
c3751ce0   xdc_runtime_knl_GateThread_enter__E
c3751d00   xdc_runtime_knl_GateThread_enter__F
c3751d20   xdc_runtime_knl_GateThread_leave__E
c3751d40   xdc_runtime_knl_GateThread_leave__F
c3751d60   xdc_runtime_knl_GateThread_query__E
c3751d80   xdc_runtime_knl_GateThread_query__F


GLOBAL SYMBOLS: SORTED BY Symbol Address 

address    name
--------   ----
00000001   __TI_args_main
00000001   xdc_runtime_Startup__EXECFXN__C
00000001   xdc_runtime_Startup__RESETFXN__C
00000064   _argsize
00001000   __TI_STACK_SIZE
c3000000   __ASM__
c3000000   ti_sdo_utils_NameServer_Module_State_0_nsRemoteHandle__A
c3000008   ti_sysbios_heaps_HeapMem_Instance_State_0_buf__A
c3000050   __ISA__
c3000068   __PLAT__
c3000090   __TARG__
c30000b8   __TRDR__
c3700008   ti_sysbios_knl_Task_Instance_State_0_hookEnv__A
c3700010   xdc_runtime_LoggerBuf_Instance_State_0_entryArr__A
c3701010   xdc_runtime_SysMin_Module_State_0_outbuf__A
c3721010   ti_sysbios_knl_Task_Instance_State_0_stack__A
c3721810   FrameQ_moduleCfg
c372181c   RingIOShm_moduleCfg
c3721828   RingIO_moduleCfg
c3721830   ti_sdo_ipc_MessageQ_Module_State_0_transports__A
c3721840   FrameQBufMgr_ShMem_create
c3723a20   FrameQ_ShMem_create
c3724a80   _ClientNotifyMgr_create
c3725a20   _FrameQ_ShMem_open
c3726740   UARTwrite
c37267c0   UARTprintf
c3726d00   UARTPuts
c3726dcc   UARTPutNum
c3726ef4   UARTPutHexNum
c3727008   UARTGets
c3727094   UARTGetNum
c3727138   UARTGetHexNum
c3727380   ti_sdo_ipc_GateMP_Instance_init__F
c3727ec0   FrameQ_ShMem_delete
c3728920   FrameQBufMgr_ShMem_delete
c3729220   FrameQ_ShMem_putv
c3729b20   ClientNotifyMgr_delete
c372a3c0   ti_sysbios_family_c64p_Exception_handler__I
c372ac60   xdc_runtime_System_doPrint__I
c372b500   FrameQ_ShMem_put
c372bd00   ClientNotifyMgr_setup
c372c4e0   Ipc_attach
c372cca0   Ipc_detach
c372d3a0   ti_sdo_ipc_transports_TransportShm_Instance_init__F
c372daa0   FrameQBufMgr_ShMem_dupv
c372e180   FrameQ_ShMem_getv
c372e820   FrameQBufMgr_ShMem_dup
c372ee60   ClientNotifyMgr_sendNotificationMulti
c372f440   FrameQBufMgr_ShMem_allocv
c372fa20   ClientNotifyMgr_threadFxn
c3730010   syslink_service_new
c3730040   syslink_service_destroy
c3730064   syslink_service_start
c37303ac   syslink_service_install
c373044c   syslink_service_host_id
c37304c0   ti_sdo_ipc_heaps_HeapMemMP_Instance_init__F
c3730ecc   resource_sync_new
c373104c   resource_sync_destroy
c3731090   resource_sync_pair_wait
c37311a4   resource_sync_wait
c3731268   resource_sync_post
c3731320   syslink_new
c3731440   syslink_destroy
c3731464   syslink_connnect
c37315c8   syslink_disconnect
c3731788   syslink_host_id
c37317e0   ti_sdo_ipc_ListMP_Instance_init__F
c3731ca0   ClientNotifyMgr_sendNotification
c3732140   ClientNotifyMgr_sendForceNotificationMulti
c37325a0   ti_sdo_ipc_GateMP_setRegion0Reserved__F
c3732a00   ti_sdo_ipc_nsremote_NameServerRemoteNotify_get__F
c3732e60   FrameQBufMgr_ShMem_sharedMemReq
c3733280   FrameQ_ShMem_flushAll
c3733ac0   ti_sdo_ipc_GateMP_Instance_finalize__F
c3733ee0   FrameQBufMgr_ShMem_freev
c37342c0   ti_sdo_ipc_heaps_HeapMemMP_alloc__E
c3734680   ti_sdo_ipc_heaps_HeapMemMP_free__E
c3734a40   ClientNotifyMgr_registerClient
c3734de0   ClientNotifyMgr_unregisterClient
c3735180   FrameQ_ShMem_getvNumFrames
c3735520   NameServer_add
c37358c0   FrameQBufMgr_ShMem_free
c3735c20   FrameQBufMgr_open
c3735f60   FrameQ_ShMem_get
c37362a0   UARTSpaceAvail
c37362ac   UARTRxErrorGet
c37362b8   UARTParityModeSet
c37362e4   UARTParityModeGet
c37362f0   UARTModemStatusGet
c3736300   UARTModemControlSet
c3736330   UARTModemControlGet
c3736340   UARTModemControlClear
c3736364   UARTIntStatus
c373636c   UARTIntEnable
c3736388   UARTIntDisable
c37363a8   UARTFIFOLevelSet
c37363b8   UARTFIFOEnable
c37363c4   UARTFIFODisable
c37363cc   UARTEnable
c37363d8   UARTDisable
c37363f4   UARTDMAEnable
c3736404   UARTDMADisable
c3736410   UARTConfigSetExpClk
c37364a8   UARTConfigGetExpClk
c3736500   UARTCharsAvail
c373650c   UARTCharPutNonBlocking
c3736524   UARTCharPut
c3736568   UARTCharGetNonBlocking
c3736580   UARTCharGet
c37365b0   UARTBreakCtl
c37365e0   FrameQBufMgr_create
c3736900   FrameQBufMgr_ShMem_alloc
c3736c00   Ipc_writeConfig
c3736f00   ti_sysbios_knl_Semaphore_pend__E
c3737200   ti_sysbios_knl_Task_Instance_finalize__F
c3737500   ListMP_getHead
c37377e0   ti_sdo_ipc_Ipc_procSyncStart__I
c3737ac0   ti_sdo_ipc_nsremote_NameServerRemoteNotify_Instance_init__F
c3737da0   FrameQ_ShMem_registerNotifier
c3738060   NameServer_get
c3738320   GPIOPinWrite
c373836c   GPIOPinRead
c37383a0   GPIOPinIntStatus
c37383d0   GPIOPinIntClear
c37383f4   GPIOIntTypeSet
c3738490   GPIOIntTypeGet
c37384d4   GPIODirModeSet
c3738530   GPIODirModeGet
c3738560   GPIOBankPinsWrite
c37385a0   GPIOBankIntEnable
c37385b8   GPIOBankIntDisable
c37385e0   ti_sysbios_timers_timer64_Timer_Module_startup__F
c37388a0   ti_sdo_ipc_transports_TransportShm_Instance_finalize__F
c3738b40   ti_sysbios_timers_timer64_Timer_deviceConfig__I
c3738de0   ListMP_putHead
c3739060   ListMP_putTail
c37392e0   ListMP_remove
c3739560   ti_sdo_ipc_gates_GatePeterson_Instance_init__F
c37397e0   xdc_runtime_Error_raiseX__F
c3739a60   FrameQBufMgr_ShMem_Params_init
c3739cc0   GateMP_openByAddr
c3739f20   Ipc_start
c373a180   __c6xabi_divull
c373a3e0   ti_sysbios_family_c64p_Exception_internalHandler__I
c373a640   ti_sysbios_timers_timer64_Timer_setPeriodMicroSecs__E
c373a8a0   xdc_runtime_Startup_startMods__I
c373ab00   xdc_runtime_System_printfExtend__I
c373ad60   FrameQ_ShMem_unregisterNotifier
c373afa0   FrameQ_setup
c373b1e0   Notify_unregisterEvent
c373b420   ti_sdo_ipc_family_da830_NotifySetup_attach__E
c373b660   ti_sdo_ipc_heaps_HeapMemMP_getStats__E
c373b8a0   xdc_runtime_LoggerBuf_write8__F
c373bae0   ClientNotifyMgr_destroy
c373bd00   FrameQ_ShMem_sharedMemReq
c373bf20   SyslinkMemMgr_create
c373c140   ti_sdo_ipc_nsremote_NameServerRemoteNotify_swiFxn__I
c373c360   ti_sysbios_family_c64p_Hwi_reconfig__E
c373c580   ti_sysbios_gates_GateMutexPri_enter__E
c373c7a0   xdc_runtime_Core_createObject__I
c373c9c0   ti_sysbios_family_c64p_Hwi_dispatchAlways
c373cbc0   ti_sdo_ipc_Ipc_procSyncFinish__I
c373cdc0   ti_sdo_ipc_notifyDrivers_NotifyDriverShm_Instance_init__F
c373cfc0   ti_sdo_ipc_notifyDrivers_NotifyDriverShm_sendEvent__E
c373d1c0   FrameQBufMgr_setup
c373d3a0   FrameQ_ShMem_getNumFrames
c373d580   GateMP_sharedMemReq
c373d760   ListMP_openByAddr
c373d940   GPIOBank0Pin0PinMuxSetup
c373d978   GPIOBank0Pin1PinMuxSetup
c373d9b4   GPIOBank0Pin2PinMuxSetup
c373d9f0   GPIOBank0Pin5PinMuxSetup
c373da2c   GPIOBank0Pin6PinMuxSetup
c373da68   GPIOBank6Pin1PinMuxSetup
c373daa4   GPIOBank6Pin12PinMuxSetup
c373dae0   GPIOBank6Pin13PinMuxSetup
c373db20   server_new
c373db6c   server_start
c373dd00   ti_sdo_utils_NameServer_Instance_finalize__F
c373dee0   ti_sysbios_family_c64p_Exception_externalHandler__I
c373e0c0   ti_sysbios_knl_Task_Instance_init__F
c373e2a0   ti_sysbios_knl_Task_checkStacks__E
c373e480   ti_sdo_ipc_GateMP_getFreeResource__I
c373e640   ti_sdo_ipc_heaps_HeapMemMP_postInit__I
c373e800   ti_sysbios_family_c64p_Cache_block__I
c373e9c0   ti_sysbios_family_c64p_Exception_decodeMpfsr__I
c373eb80   ti_sysbios_knl_Task_exit__E
c373ed40   ti_sysbios_knl_Task_postInit__I
c373ef00   xdc_runtime_Text_putSite__F
c373f0c0   FrameQBufMgr_ShMem_setup
c373f260   FrameQBufMgr_delete
c373f400   ti_sdo_ipc_notifyDrivers_NotifyDriverShm_registerEvent__E
c373f5a0   ti_sdo_ipc_notifyDrivers_NotifyDriverShm_unregisterEvent__E
c373f740   ti_sdo_utils_NameServer_Instance_init__F
c373f8e0   ti_sysbios_timers_timer64_Timer_start__E
c373fa80   xdc_runtime_LoggerBuf_write4__F
c373fc20   NameServer_getHandle
c373fda0   UARTPinMuxSetup
c373ff20   RingIO_setup
c37400a0   PSCModuleControl
c3740220   ti_sysbios_family_c64p_Exception_dispatch__E
c37403a0   ti_sdo_ipc_gates_GatePeterson_enter__E
c3740520   ti_sdo_ipc_notifyDrivers_NotifyDriverShm_isr__I
c37406a0   ti_sysbios_heaps_HeapMem_alloc__E
c3740820   ti_sysbios_knl_Swi_schedule__I
c37409a0   ti_sysbios_knl_Task_setPri__E
c3740b20   ClientNotifyMgr_waitOnMultiSubEntryNotify
c3740c80   FrameQBufMgr_ShMem_invalidate
c3740de0   FrameQBufMgr_ShMem_writeBack
c3740f40   FrameQ_ShMem_setup
c37410a0   FrameQ_destroy
c3741200   SysLink_setup
c3741360   ti_sdo_ipc_GateMP_openRegion0Reserved__F
c37414c0   ti_sdo_ipc_ListMP_Instance_finalize__F
c3741620   ti_sdo_ipc_Notify_Instance_init__F
c3741780   ti_sdo_ipc_heaps_HeapMemMP_Instance_finalize__F
c37418e0   ti_sdo_utils_NameServer_removeLocal__I
c3741a40   ti_sysbios_knl_Task_schedule__I
c3741ba0   ti_sysbios_knl_Task_startCore__E
c3741d00   HeapMemMP_openByAddr
c3741e40   MessageQ_put
c3741f80   Notify_registerEvent
c37420c0   _auto_init_elf
c3742200   ti_sdo_ipc_SharedRegion_start__F
c3742340   ti_sdo_ipc_notifyDrivers_NotifyDriverShm_disableEvent__E
c3742480   ti_sdo_ipc_transports_TransportShm_openByAddr__F
c37425c0   ti_sdo_ipc_transports_TransportShm_put__E
c3742700   ti_sysbios_heaps_HeapMem_free__E
c3742840   ti_sysbios_knl_Task_Module_startup__F
c3742980   ti_sysbios_knl_Task_sleep__E
c3742ac0   xdc_runtime_Text_putLab__F
c3742c00   FrameQBufMgr_ShMem_getvNumFreeFrames
c3742d20   FrameQBufMgr_ShMem_open
c3742e40   HeapMemMP_sharedMemReq
c3742f60   ti_sdo_ipc_MessageQ_Module_startup__F
c3743080   ti_sdo_ipc_transports_TransportShm_sharedMemReq__F
c37431a0   ti_sysbios_family_c64p_Exception_Module_startup__F
c37432c0   ti_sysbios_knl_Clock_workFunc__E
c37433e0   xdc_runtime_LoggerBuf_setFilterLevel__F
c3743500   xdc_runtime_Text_putMod__F
c3743620   ClientNotifyMgr_swiFxn
c3743720   FrameQBufMgr_Shmem_updateCacheFlags
c3743820   FrameQBufMgr_destroy
c3743920   ListMP_sharedMemReq
c3743a20   Notify_registerEventSingle
c3743b20   Notify_sendEvent
c3743c20   Notify_unregisterEventSingle
c3743d20   _FrameQ_ShMem_resetNotifyId
c3743e20   _FrameQ_ShMem_setNotifyId
c3743f20   ti_sdo_ipc_GateMP_start__F
c3744020   ti_sdo_ipc_Notify_Instance_finalize__F
c3744120   ti_sdo_ipc_Notify_Object__create__S
c3744220   ti_sdo_ipc_SharedRegion_attach__F
c3744320   ti_sdo_ipc_SharedRegion_clearReservedMemory__F
c3744420   ti_sdo_ipc_gates_GatePeterson_Object__create__S
c3744520   ti_sdo_ipc_nsremote_NameServerRemoteNotify_Instance_finalize__F
c3744620   ti_sdo_ipc_nsremote_NameServerRemoteNotify_Object__create__S
c3744720   ti_sdo_ipc_transports_TransportShmSetup_attach__E
c3744820   ti_sdo_ipc_transports_TransportShm_Object__create__S
c3744920   ti_sdo_utils_NameServer_Object__create__S
c3744a20   ti_sdo_utils_NameServer_findLocal__I
c3744b20   ti_sysbios_family_c64p_Hwi_Module_startup__F
c3744c20   ti_sysbios_family_c64p_Hwi_Object__create__S
c3744d20   ti_sysbios_family_c64p_Hwi_dispatchC__I
c3744e20   ti_sysbios_gates_GateMutexPri_leave__E
c3744f20   ti_sysbios_knl_Clock_startI__E
c3745020   ti_sysbios_knl_Semaphore_post__E
c3745120   ti_sysbios_knl_Swi_Object__create__S
c3745220   ti_sysbios_knl_Swi_restoreHwi__E
c3745320   ti_sysbios_knl_Task_Object__create__S
c3745420   ti_sysbios_timers_timer64_Timer_initDevice__I
c3745520   xdc_runtime_Core_deleteObject__I
c3745620   xdc_runtime_LoggerBuf_getFilterLevel__F
c3745720   xdc_runtime_Startup_exec__F
c3745820   xdc_runtime_Text_visitRope2__I
c3745920   ClientNotifyMgr_cbFxn
c3745a00   ClientNotifyMgr_enableNotification
c3745ae0   ClientNotifyMgr_thFxn
c3745bc0   FrameQBufMgr_getHandle
c3745ca0   FrameQBufMgr_getInstNo
c3745d80   FrameQ_ShMem_open
c3745e60   NameServer_getLocal
c3745fa0   UARTConsoleInit
c3745fd8   UARTConsolePutc
c3746000   UARTConsoleGetc
c3746020   RingIOShm_setup
c3746100   RingIO_destroy
c37461e0   SyslinkMemMgr_SharedMemory_translate
c37462c0   memset
c37463a0   ti_sdo_ipc_GateMP_Object__create__S
c3746480   ti_sdo_ipc_Ipc_getMasterAddr__I
c3746560   ti_sdo_ipc_Ipc_getSlaveAddr__I
c3746640   ti_sdo_ipc_ListMP_Object__create__S
c3746720   ti_sdo_ipc_Notify_detach__F
c3746800   ti_sdo_ipc_SharedRegion_reserveMemory__F
c37468e0   ti_sdo_ipc_SharedRegion_stop__F
c37469c0   ti_sdo_ipc_gates_GatePeterson_sharedMemReq__E
c3746aa0   ti_sdo_ipc_heaps_HeapMemMP_Object__create__S
c3746b80   ti_sdo_ipc_notifyDrivers_NotifyDriverShm_Object__create__S
c3746c60   ti_sdo_utils_NameServer_Module_startup__F
c3746d40   ti_sysbios_family_c64p_Cache_Module_startup__F
c3746e20   ti_sysbios_family_c64p_Hwi_Instance_finalize__F
c3746f00   ti_sysbios_family_c64p_Hwi_Instance_init__F
c3746fe0   ti_sysbios_knl_Task_unblockI__E
c37470c0   xdc_runtime_Error_print__F
c37471a0   xdc_runtime_LoggerBuf_Object__create__S
c3747280   xdc_runtime_Memory_alloc__F
c3747360   xdc_runtime_knl_GateThread_Object__create__S
c3747440   ClientNotifyMgr_sharedMemReq
c3747500   FrameQBufMgr_ShMem_destroy
c37475c0   FrameQ_Shmem_updateCacheFlags
c3747680   HOSTwrite
c3747740   HeapMemMP_create
c3747800   Ipc_stop
c37478c0   ListMP_create
c3747980   MultiProc_getId
c3747a40   NameServer_create
c3747b00   SharedRegion_getId
c3747bc0   SyslinkMemMgr_delete
c3747d40   __cxa_finalize
c3747e00   __c6xabi_divu
c3747e00   __divu
c3747ec0   exit
c3747f80   ti_sdo_ipc_GateMP_attach__F
c3748040   ti_sdo_ipc_ListMP_elemClear__I
c3748100   ti_sdo_ipc_Notify_execMany__I
c37481c0   ti_sdo_ipc_SharedRegion_detach__F
c3748280   ti_sdo_ipc_family_da830_InterruptDsp_intRegister__E
c3748340   ti_sdo_ipc_gates_GatePeterson_postInit__I
c3748400   ti_sdo_ipc_nsremote_NameServerRemoteNotify_attach__E
c37484c0   ti_sdo_utils_NameServer_postInit__I
c3748580   ti_sysbios_heaps_HeapMem_getStats__E
c3748640   ti_sysbios_knl_Swi_Instance_init__F
c3748700   ti_sysbios_knl_Swi_run__I
c37487c0   ti_sysbios_knl_Task_allBlockedFunction__I
c3748880   ti_sysbios_timers_timer64_Timer_startup__E
c3748940   xdc_runtime_LoggerBuf_Instance_init__F
c3748a00   xdc_runtime_Registry_findById__E
c3748ac0   xdc_runtime_System_formatNum__I
c3748b80   FrameQBufMgr_ShMem_getNumFreeFrames
c3748c20   FrameQBufMgr_ShMem_registerNotifier
c3748cc0   FrameQBufMgr_ShMem_translateAddr
c3748d60   SharedRegion_getPtr
c3748e00   SharedRegion_getSRPtr
c3748ea0   __c6xabi_remu
c3748ea0   __remu
c3748f40   _c_int00
c3748fe0   ti_sysbios_family_c64p_Hwi_plug__E
c3749080   memcpy
c3749120   ti_sdo_ipc_GateMP_detach__F
c37491c0   ti_sdo_ipc_GateMP_getRegion0ReservedSize__F
c3749260   ti_sdo_ipc_GateMP_stop__F
c3749300   ti_sdo_ipc_gates_GatePeterson_leave__E
c37493a0   ti_sdo_ipc_notifyDrivers_NotifyDriverShm_Instance_finalize__F
c3749440   ti_sdo_ipc_transports_TransportShmSetup_detach__E
c37494e0   ti_sysbios_family_c64p_Hwi_eventMap__E
c3749580   ti_sysbios_family_c64p_Hwi_getStackInfo__E
c3749620   ti_sysbios_gates_GateMutex_enter__E
c37496c0   ti_sysbios_heaps_HeapMem_init__I
c3749760   ti_sysbios_knl_Idle_run__E
c3749800   ti_sysbios_knl_Semaphore_pendTimeout__I
c37498a0   ti_sysbios_knl_Swi_restore__E
c3749940   ti_sysbios_timers_timer64_Timer_stop__E
c37499e0   xdc_runtime_Assert_raise__I
c3749a80   xdc_runtime_LoggerBuf_Module_startup__F
c3749b20   xdc_runtime_SysMin_abort__F
c3749bc0   xdc_runtime_SysMin_flush__F
c3749c60   xdc_runtime_SysMin_putch__F
c3749d00   xdc_runtime_Text_xprintf__I
c3749da0   FrameQBufMgr_ShMem_invalidateHeaderBuf
c3749e20   FrameQBufMgr_freeInstNo
c3749ea0   FrameQ_ShMem_destroy
c3749f20   GateMP_close
c3749fa0   GateMP_create
c374a020   HeapMemMP_restore
c374a0a0   SharedRegion_getEntry
c374a120   SyslinkMemMgr_SharedMemory_delete
c374a1a0   SyslinkMemMgr_TilerMemory_delete
c374a220   __c6xabi_llshl
c374a2a0   ti_sysbios_family_c62_TaskSupport_swap__E
c374a320   main
c374a3a0   malloc
c374a420   readmsg
c374a4a0   strncpy
c374a520   ti_sdo_ipc_Notify_Module_startup__F
c374a5a0   ti_sdo_ipc_family_da830_NotifySetup_sharedMemReq__E
c374a620   ti_sdo_ipc_gates_GateMPSupportNull_Object__create__S
c374a6a0   ti_sdo_ipc_notifyDrivers_NotifyDriverShm_sharedMemReq__F
c374a720   ti_sdo_ipc_nsremote_NameServerRemoteNotify_detach__E
c374a7a0   ti_sdo_ipc_transports_TransportShm_swiFxn__I
c374a820   ti_sdo_utils_List_Object__create__S
c374a8a0   ti_sysbios_BIOS_errorRaiseHook__I
c374a920   ti_sysbios_BIOS_exitFunc__I
c374a9a0   ti_sysbios_gates_GateAll_Object__create__S
c374aa20   ti_sysbios_gates_GateHwi_Object__create__S
c374aaa0   ti_sysbios_gates_GateMutexPri_Object__create__S
c374ab20   ti_sysbios_gates_GateMutex_Object__create__S
c374aba0   ti_sysbios_gates_GateSwi_Object__create__S
c374ac20   ti_sysbios_hal_Hwi_checkStack
c374aca0   ti_sysbios_hal_Hwi_initStack
c374ad20   ti_sysbios_heaps_HeapMem_Instance_init__F
c374ada0   ti_sysbios_heaps_HeapMem_Object__create__S
c374ae20   ti_sysbios_knl_Clock_Module_startup__F
c374aea0   ti_sysbios_knl_Clock_doTick__I
c374af20   ti_sysbios_knl_Clock_getTicks__E
c374afa0   ti_sysbios_knl_Queue_Object__create__S
c374b020   ti_sysbios_knl_Semaphore_Object__create__S
c374b0a0   ti_sysbios_knl_Swi_post__E
c374b120   ti_sysbios_knl_Task_processVitalTaskFlag__I
c374b1a0   ti_sysbios_knl_Task_restoreHwi__E
c374b220   ti_sysbios_knl_Task_restore__E
c374b2a0   ti_sysbios_knl_Task_yield__E
c374b320   ti_sysbios_timers_timer64_Timer_getExpiredCounts__E
c374b3a0   ti_sysbios_timers_timer64_Timer_getPeriod__E
c374b420   ti_sysbios_xdcruntime_GateThreadSupport_Object__create__S
c374b4a0   xdc_runtime_Core_assignLabel__I
c374b520   xdc_runtime_Core_assignParams__I
c374b5a0   xdc_runtime_LoggerBuf_filterOutEvent__I
c374b620   xdc_runtime_System_atexit__F
c374b6a0   xdc_runtime_System_putchar__I
c374b720   xdc_runtime_System_rtsExit__I
c374b7a0   xdc_runtime_Text_printVisFxn__I
c374b820   ClientNotifyMgr_Params_init
c374b880   ClientNotifyMgr_callBack
c374b8e0   ClientNotifyMgr_getConfig
c374b9a0   FrameQBufMgr_Params_init
c374ba00   FrameQBufMgr_ShMem_getConfig
c374ba60   FrameQBufMgr_ShMem_invalidateFrameBuf
c374bac0   FrameQBufMgr_ShMem_unregisterNotifier
c374bb20   FrameQBufMgr_ShMem_writeBackFrameBuf
c374bb80   FrameQBufMgr_ShMem_writeBackHeaderBuf
c374bbe0   FrameQBufMgr_getConfig
c374bc40   FrameQ_ShMem_alloc
c374bca0   FrameQ_ShMem_allocv
c374bd00   FrameQ_ShMem_freev
c374bd60   FrameQ_ShMem_getConfig
c374bdc0   GateMP_Params_init
c374be20   HeapMemMP_Params_init
c374be80   Ipc_isAttached
c374bee0   Notify_numIntLines
c374bf40   Notify_sharedMemReq
c374bfa0   SharedRegion_getCacheLineSize
c374c000   SharedRegion_getHeap
c374c060   SharedRegion_isCacheEnabled
c374c0c0   SyslinkMemMgr_SharedMemory_alloc
c374c120   SyslinkMemMgr_SharedMemory_create
c374c180   SyslinkMemMgr_SharedMemory_free
c374c1e0   SyslinkMemMgr_TilerMemory_create
c374c240   SyslinkMemMgr_alloc
c374c2a0   SyslinkMemMgr_free
c374c300   _subcull
c374c360   calloc
c374c3c0   ti_sdo_ipc_GateMP_Object__delete__S
c374c420   ti_sdo_ipc_GateMP_createLocal__F
c374c480   ti_sdo_ipc_Ipc_getRegion0ReservedSize__I
c374c4e0   ti_sdo_ipc_ListMP_Object__delete__S
c374c540   ti_sdo_ipc_Notify_Object__delete__S
c374c5a0   ti_sdo_ipc_gates_GatePeterson_Instance_finalize__F
c374c600   ti_sdo_ipc_gates_GatePeterson_Object__delete__S
c374c660   ti_sdo_ipc_heaps_HeapMemMP_Object__delete__S
c374c6c0   ti_sdo_ipc_notifyDrivers_NotifyDriverShm_Object__delete__S
c374c720   ti_sdo_ipc_notifyDrivers_NotifyDriverShm_enableEvent__E
c374c780   ti_sdo_ipc_notifyDrivers_NotifyDriverShm_setNotifyHandle__E
c374c7e0   ti_sdo_ipc_nsremote_NameServerRemoteNotify_Object__delete__S
c374c840   ti_sdo_ipc_transports_TransportShmSetup_sharedMemReq__E
c374c8a0   ti_sdo_ipc_transports_TransportShm_Object__delete__S
c374c900   ti_sdo_utils_NameServer_Object__delete__S
c374c960   ti_sysbios_BIOS_registerRTSLock__I
c374c9c0   ti_sysbios_BIOS_removeRTSLock__I
c374ca20   ti_sysbios_BIOS_rtsLock__I
c374ca80   ti_sysbios_family_c62_TaskSupport_start__E
c374cae0   ti_sysbios_family_c64p_Cache_all__I
c374cb40   ti_sysbios_family_c64p_Cache_marInit__I
c374cba0   ti_sysbios_family_c64p_Cache_setMar__E
c374cc00   ti_sysbios_family_c64p_Cache_setSize__E
c374cc60   ti_sysbios_family_c64p_Cache_wait__E
c374ccc0   ti_sysbios_family_c64p_Hwi_Object__delete__S
c374cd20   ti_sysbios_gates_GateAll_enter__E
c374cd80   ti_sysbios_gates_GateAll_leave__E
c374cde0   ti_sysbios_gates_GateMutexPri_Object__delete__S
c374ce40   ti_sysbios_gates_GateMutex_Instance_init__F
c374cea0   ti_sysbios_gates_GateMutex_Object__delete__S
c374cf00   ti_sysbios_knl_Clock_setupTimerToSkipTicks__E
c374cf60   ti_sysbios_knl_Semaphore_Instance_init__F
c374cfc0   ti_sysbios_knl_Semaphore_Object__delete__S
c374d020   ti_sysbios_knl_Swi_Module_startup__F
c374d080   ti_sysbios_knl_Swi_Object__delete__S
c374d0e0   ti_sysbios_knl_Task_Object__delete__S
c374d140   ti_sysbios_knl_Task_enter__I
c374d1a0   ti_sysbios_knl_Task_sleepTimeout__I
c374d200   ti_sysbios_xdcruntime_GateThreadSupport_Object__delete__S
c374d260   ti_syslink_ipc_rtos_Syslink_attach
c374d2c0   writemsg
c374d318   C$$IO$$
c374d320   xdc_runtime_GateNull_Object__create__S
c374d380   xdc_runtime_LoggerBuf_Object__delete__S
c374d3e0   xdc_runtime_Memory_calloc__F
c374d440   xdc_runtime_Memory_valloc__F
c374d4a0   xdc_runtime_SysMin_Module_startup__F
c374d500   xdc_runtime_SysMin_exit__F
c374d560   xdc_runtime_SysMin_output__I
c374d5c0   xdc_runtime_System_aprintf_va__F
c374d620   xdc_runtime_System_printf_va__F
c374d680   xdc_runtime_Text_cordText__F
c374d6e0   xdc_runtime_knl_GateThread_Object__delete__S
c374d740   FrameQ_ShMem_dup
c374d780   FrameQ_ShMem_free
c374d7c0   FrameQ_ShMem_getNumFreeFrames
c374d800   FrameQ_ShMem_getvNumFreeFrames
c374d840   FrameQ_ShMem_sendNotify
c374d880   FrameQ_getConfig
c374d8c0   Notify_intLineRegistered
c374d900   RingIOShm_destroy
c374d940   SyslinkMemMgr_SharedMemory_Params_init
c374d980   SyslinkMemMgr_TilerMemory_Params_init
c374d9c0   __c6xabi_llshru
c374da00   __c6xabi_strasgi_64plus
c374da00   __strasgi_64plus
c374da40   _args_main
c374da80   ti_sysbios_family_c62_TaskSupport_buildTaskStack
c374dac0   ti_sysbios_family_xxx_Hwi_switchToIsrStack
c374db00   free
c374db80   ti_sdo_ipc_MessageQ_registerTransport__F
c374dbc0   ti_sdo_ipc_MessageQ_unregisterTransport__F
c374dc00   ti_sdo_ipc_Notify_exec__F
c374dc40   ti_sdo_ipc_SharedRegion_resetInternalFields__F
c374dc80   ti_sdo_ipc_family_da830_InterruptDsp_intClear__E
c374dcc0   ti_sdo_ipc_family_da830_InterruptDsp_intSend__E
c374dd00   ti_sdo_ipc_gates_GateMPSupportNull_Handle__label__S
c374dd40   ti_sdo_ipc_gates_GateMPSupportNull_Object__delete__S
c374dd80   ti_sdo_ipc_gates_GatePeterson_Handle__label__S
c374ddc0   ti_sdo_ipc_heaps_HeapMemMP_Handle__label__S
c374de00   ti_sdo_ipc_notifyDrivers_NotifyDriverShm_Handle__label__S
c374de40   ti_sdo_ipc_nsremote_NameServerRemoteNotify_Handle__label__S
c374de80   ti_sdo_ipc_nsremote_NameServerRemoteNotify_sharedMemReq__E
c374dec0   ti_sdo_ipc_transports_TransportShm_Handle__label__S
c374df00   ti_sdo_utils_List_Object__delete__S
c374df40   ti_sdo_utils_List_get__E
c374df80   ti_sdo_utils_List_putHead__E
c374dfc0   ti_sdo_utils_List_put__E
c374e000   ti_sdo_utils_NameServer_Module__startupDone__F
c374e040   ti_sdo_utils_NameServer_Object__get__S
c374e080   ti_sdo_utils_NameServer_registerRemoteDriver__E
c374e0c0   ti_sdo_utils_NameServer_unregisterRemoteDriver__E
c374e100   ti_sysbios_BIOS_rtsUnlock__I
c374e140   ti_sysbios_BIOS_startFunc__I
c374e180   ti_sysbios_family_c64p_Hwi_Module__startupDone__F
c374e1c0   ti_sysbios_family_c64p_Hwi_disableInterrupt__E
c374e200   ti_sysbios_family_c64p_Hwi_enableInterrupt__E
c374e240   ti_sysbios_family_c64p_primus_TimerSupport_enable__E
c374e280   ti_sysbios_gates_GateAll_Handle__label__S
c374e2c0   ti_sysbios_gates_GateAll_Object__delete__S
c374e300   ti_sysbios_gates_GateHwi_Handle__label__S
c374e340   ti_sysbios_gates_GateHwi_Object__delete__S
c374e380   ti_sysbios_gates_GateMutexPri_Handle__label__S
c374e3c0   ti_sysbios_gates_GateMutexPri_Instance_init__F
c374e400   ti_sysbios_gates_GateMutexPri_Object__destruct__S
c374e440   ti_sysbios_gates_GateMutex_Handle__label__S
c374e480   ti_sysbios_gates_GateMutex_leave__E
c374e4c0   ti_sysbios_gates_GateSwi_Handle__label__S
c374e500   ti_sysbios_gates_GateSwi_Object__delete__S
c374e540   ti_sysbios_hal_Timer_Module__startupDone__F
c374e580   ti_sysbios_heaps_HeapMem_Handle__label__S
c374e5c0   ti_sysbios_heaps_HeapMem_Object__delete__S
c374e600   ti_sysbios_heaps_HeapMem_Object__get__S
c374e640   ti_sysbios_knl_Queue_put__E
c374e680   ti_sysbios_knl_Semaphore_Object__destruct__S
c374e6c0   ti_sysbios_knl_Swi_Object__destruct__S
c374e700   ti_sysbios_knl_Swi_Object__get__S
c374e740   ti_sysbios_knl_Task_Object__get__S
c374e780   ti_sysbios_timers_timer64_Timer_Module__startupDone__F
c374e7c0   ti_sysbios_xdcruntime_GateThreadSupport_Instance_init__F
c374e800   ti_syslink_ipc_rtos_Syslink_detach
c374e840   xdc_runtime_Error_check__F
c374e880   xdc_runtime_Error_init__F
c374e8c0   xdc_runtime_GateNull_Handle__label__S
c374e900   xdc_runtime_GateNull_Object__delete__S
c374e940   xdc_runtime_LoggerBuf_Handle__label__S
c374e980   xdc_runtime_LoggerBuf_Instance_finalize__F
c374e9c0   xdc_runtime_LoggerBuf_Object__get__S
c374ea00   xdc_runtime_LoggerBuf_write0__F
c374ea40   xdc_runtime_LoggerBuf_write8__E
c374ea80   xdc_runtime_Memory_free__F
c374eac0   xdc_runtime_Registry_findById__F
c374eb00   xdc_runtime_System_abort__F
c374eb40   xdc_runtime_System_aprintf__E
c374eb80   xdc_runtime_System_printf__E
c374ebc0   xdc_runtime_Text_ropeText__F
c374ec00   xdc_runtime_knl_GateThread_Handle__label__S
c374ec40   xdc_runtime_knl_GateThread_Instance_finalize__F
c374ec80   xdc_runtime_knl_GateThread_Instance_init__F
c374ecc0   ClientNotifyMgr_close
c374ece0   ClientNotifyMgr_create
c374ed20   FrameQBufMgr_ShMem_add
c374ed40   FrameQBufMgr_ShMem_close
c374ed60   FrameQBufMgr_ShMem_control
c374ed80   FrameQBufMgr_ShMem_getId
c374eda0   FrameQBufMgr_ShMem_isCacheEnabledForFrameBuf
c374edc0   FrameQBufMgr_ShMem_isCacheEnabledForHeaderBuf
c374ede0   FrameQBufMgr_ShMem_remove
c374ee00   FrameQBufMgr_alloc
c374ee20   FrameQBufMgr_allocv
c374ee40   FrameQBufMgr_close
c374ee60   FrameQBufMgr_dup
c374ee80   FrameQBufMgr_dupv
c374eea0   FrameQBufMgr_free
c374eec0   FrameQBufMgr_freev
c374eee0   FrameQBufMgr_getBaseHeaderSize
c374ef00   FrameQBufMgr_getId
c374ef20   FrameQBufMgr_getNumFreeFrames
c374ef40   FrameQBufMgr_getvNumFreeFrames
c374ef60   FrameQBufMgr_invalidateFrameBuf
c374ef80   FrameQBufMgr_invalidateHeaderBuf
c374efa0   FrameQBufMgr_isCacheEnabledForFrameBuf
c374efc0   FrameQBufMgr_isCacheEnabledForHeaderBuf
c374efe0   FrameQBufMgr_registerNotifier
c374f000   FrameQBufMgr_translateAddr
c374f020   FrameQBufMgr_unregisterNotifier
c374f040   FrameQBufMgr_writeBackFrameBuf
c374f060   FrameQBufMgr_writeBackHeaderBuf
c374f080   FrameQ_ShMem_Params_init
c374f0a0   FrameQ_ShMem_close
c374f0c0   FrameQ_ShMem_control
c374f0e0   GateMP_delete
c374f100   GateMP_enter
c374f120   GateMP_getDefaultRemote
c374f140   GateMP_getLocalProtect
c374f160   GateMP_leave
c374f180   ListMP_Params_init
c374f1a0   ListMP_close
c374f1c0   ListMP_delete
c374f1e0   MultiProc_getNumProcessors
c374f200   MultiProc_self
c374f220   NameServer_Params_init
c374f240   NameServer_addUInt32
c374f260   NameServer_delete
c374f280   NameServer_getUInt32
c374f2a0   NameServer_removeEntry
c374f2c0   RingIOShm_getConfig
c374f2e0   RingIO_Params_init
c374f300   RingIO_getConfig
c374f320   SharedRegion_invalidSRPtr
c374f340   SysLink_destroy
c374f360   SyslinkMemMgr_TilerMemory_alloc
c374f380   SyslinkMemMgr_TilerMemory_free
c374f3a0   SyslinkMemMgr_TilerMemory_translate
c374f3c0   SyslinkMemMgr_translate
c374f3e0   UARTGetc
c374f400   UARTPutc
c374f420   UARTStdioInit
c374f440   _FrameQBufMgr_ShMem_getCliNotifyMgrGateShAddr
c374f460   _FrameQBufMgr_ShMem_getCliNotifyMgrShAddr
c374f480   _FrameQBufMgr_ShMem_resetNotifyId
c374f4a0   _FrameQBufMgr_ShMem_setNotifyId
c374f4c0   _FrameQ_ShMem_getCliNotifyMgrGate
c374f4e0   _FrameQ_ShMem_getCliNotifyMgrGateShAddr
c374f500   _FrameQ_ShMem_getCliNotifyMgrHandle
c374f520   _FrameQ_ShMem_getCliNotifyMgrShAddr
c374f540   __cxa_atexit
c374f560   __cxa_ia64_exit
c374f580   __xdc__init
c374f5a0   _nop
c374f5c0   _register_lock
c374f5e0   _register_unlock
c374f600   ti_sysbios_family_c62_TaskSupport_glue
c374f620   ti_sysbios_family_xxx_Hwi_switchToTaskStack
c374f640   C$$EXIT
c374f640   abort
c374f660   atexit
c374f680   ti_sdo_ipc_GateMP_Params__init__S
c374f6a0   ti_sdo_ipc_GateMP_RemoteCustom1Proxy_Object__create__S
c374f6c0   ti_sdo_ipc_GateMP_RemoteCustom1Proxy_Object__delete__S
c374f6e0   ti_sdo_ipc_GateMP_RemoteCustom1Proxy_Params__init__S
c374f700   ti_sdo_ipc_GateMP_RemoteCustom1Proxy_Proxy__abstract__S
c374f720   ti_sdo_ipc_GateMP_RemoteCustom1Proxy_Proxy__delegate__S
c374f740   ti_sdo_ipc_GateMP_RemoteCustom1Proxy_getReservedMask__E
c374f760   ti_sdo_ipc_GateMP_RemoteCustom1Proxy_sharedMemReq__E
c374f780   ti_sdo_ipc_GateMP_RemoteCustom2Proxy_Object__create__S
c374f7a0   ti_sdo_ipc_GateMP_RemoteCustom2Proxy_Object__delete__S
c374f7c0   ti_sdo_ipc_GateMP_RemoteCustom2Proxy_Params__init__S
c374f7e0   ti_sdo_ipc_GateMP_RemoteCustom2Proxy_Proxy__abstract__S
c374f800   ti_sdo_ipc_GateMP_RemoteCustom2Proxy_Proxy__delegate__S
c374f820   ti_sdo_ipc_GateMP_RemoteCustom2Proxy_getReservedMask__E
c374f840   ti_sdo_ipc_GateMP_RemoteCustom2Proxy_sharedMemReq__E
c374f860   ti_sdo_ipc_GateMP_RemoteSystemProxy_Object__create__S
c374f880   ti_sdo_ipc_GateMP_RemoteSystemProxy_Object__delete__S
c374f8a0   ti_sdo_ipc_GateMP_RemoteSystemProxy_Params__init__S
c374f8c0   ti_sdo_ipc_GateMP_RemoteSystemProxy_Proxy__abstract__S
c374f8e0   ti_sdo_ipc_GateMP_RemoteSystemProxy_Proxy__delegate__S
c374f900   ti_sdo_ipc_GateMP_RemoteSystemProxy_getReservedMask__E
c374f920   ti_sdo_ipc_GateMP_RemoteSystemProxy_sharedMemReq__E
c374f940   ti_sdo_ipc_GateMP_attach__E
c374f960   ti_sdo_ipc_GateMP_detach__E
c374f980   ti_sdo_ipc_GateMP_getRegion0ReservedSize__E
c374f9a0   ti_sdo_ipc_GateMP_getSharedAddr__E
c374f9c0   ti_sdo_ipc_GateMP_getSharedAddr__F
c374f9e0   ti_sdo_ipc_GateMP_start__E
c374fa00   ti_sdo_ipc_GateMP_stop__E
c374fa20   ti_sdo_ipc_ListMP_Params__init__S
c374fa40   ti_sdo_ipc_MessageQ_Module_startup__E
c374fa60   ti_sdo_ipc_MessageQ_Object__get__S
c374fa80   ti_sdo_ipc_MessageQ_SetupTransportProxy_attach__E
c374faa0   ti_sdo_ipc_MessageQ_SetupTransportProxy_detach__E
c374fac0   ti_sdo_ipc_MessageQ_SetupTransportProxy_isRegistered__E
c374fae0   ti_sdo_ipc_MessageQ_SetupTransportProxy_sharedMemReq__E
c374fb00   ti_sdo_ipc_MessageQ_registerTransport__E
c374fb20   ti_sdo_ipc_MessageQ_unregisterTransport__E
c374fb40   ti_sdo_ipc_Notify_Module_GateProxy_enter__E
c374fb60   ti_sdo_ipc_Notify_Module_GateProxy_leave__E
c374fb80   ti_sdo_ipc_Notify_Module_startup__E
c374fba0   ti_sdo_ipc_Notify_SetupProxy_attach__E
c374fbc0   ti_sdo_ipc_Notify_SetupProxy_numIntLines__E
c374fbe0   ti_sdo_ipc_Notify_SetupProxy_sharedMemReq__E
c374fc00   ti_sdo_ipc_Notify_detach__E
c374fc20   ti_sdo_ipc_Notify_exec__E
c374fc40   ti_sdo_ipc_SharedRegion_attach__E
c374fc60   ti_sdo_ipc_SharedRegion_clearReservedMemory__E
c374fc80   ti_sdo_ipc_SharedRegion_detach__E
c374fca0   ti_sdo_ipc_SharedRegion_reserveMemory__E
c374fcc0   ti_sdo_ipc_SharedRegion_resetInternalFields__E
c374fce0   ti_sdo_ipc_SharedRegion_start__E
c374fd00   ti_sdo_ipc_SharedRegion_stop__E
c374fd20   ti_sdo_ipc_family_da830_InterruptDsp_intDisable__E
c374fd40   ti_sdo_ipc_family_da830_InterruptDsp_intEnable__E
c374fd60   ti_sdo_ipc_family_da830_InterruptDsp_intUnregister__E
c374fd80   ti_sdo_ipc_family_da830_NotifySetup_numIntLines__E
c374fda0   ti_sdo_ipc_gates_GateMPSupportNull_Instance_init__F
c374fdc0   ti_sdo_ipc_gates_GateMPSupportNull_Params__init__S
c374fde0   ti_sdo_ipc_gates_GateMPSupportNull_enter__E
c374fe00   ti_sdo_ipc_gates_GateMPSupportNull_getReservedMask__E
c374fe20   ti_sdo_ipc_gates_GateMPSupportNull_leave__E
c374fe40   ti_sdo_ipc_gates_GateMPSupportNull_query__E
c374fe60   ti_sdo_ipc_gates_GateMPSupportNull_query__F
c374fe80   ti_sdo_ipc_gates_GateMPSupportNull_sharedMemReq__E
c374fea0   ti_sdo_ipc_gates_GatePeterson_Params__init__S
c374fec0   ti_sdo_ipc_gates_GatePeterson_getReservedMask__E
c374fee0   ti_sdo_ipc_gates_GatePeterson_query__E
c374ff00   ti_sdo_ipc_gates_GatePeterson_query__F
c374ff20   ti_sdo_ipc_heaps_HeapMemMP_Params__init__S
c374ff40   ti_sdo_ipc_heaps_HeapMemMP_isBlocking__E
c374ff60   ti_sdo_ipc_heaps_HeapMemMP_isBlocking__F
c374ff80   ti_sdo_ipc_notifyDrivers_NotifyDriverShm_InterruptProxy_intClear__E
c374ffa0   ti_sdo_ipc_notifyDrivers_NotifyDriverShm_InterruptProxy_intDisable__E
c374ffc0   ti_sdo_ipc_notifyDrivers_NotifyDriverShm_InterruptProxy_intEnable__E
c374ffe0   ti_sdo_ipc_notifyDrivers_NotifyDriverShm_InterruptProxy_intRegister__E
c3750000   ti_sdo_ipc_notifyDrivers_NotifyDriverShm_InterruptProxy_intSend__E
c3750020   ti_sdo_ipc_notifyDrivers_NotifyDriverShm_InterruptProxy_intUnregister__E
c3750040   ti_sdo_ipc_notifyDrivers_NotifyDriverShm_Params__init__S
c3750060   ti_sdo_ipc_notifyDrivers_NotifyDriverShm_disable__E
c3750080   ti_sdo_ipc_notifyDrivers_NotifyDriverShm_enable__E
c37500a0   ti_sdo_ipc_notifyDrivers_NotifyDriverShm_sharedMemReq__E
c37500c0   ti_sdo_ipc_nsremote_NameServerRemoteNotify_Object__first__S
c37500e0   ti_sdo_ipc_nsremote_NameServerRemoteNotify_Object__next__S
c3750100   ti_sdo_ipc_nsremote_NameServerRemoteNotify_Params__init__S
c3750120   ti_sdo_ipc_nsremote_NameServerRemoteNotify_cbFxn__I
c3750140   ti_sdo_ipc_nsremote_NameServerRemoteNotify_get__E
c3750160   ti_sdo_ipc_transports_TransportShmSetup_isRegistered__E
c3750180   ti_sdo_ipc_transports_TransportShm_Params__init__S
c37501a0   ti_sdo_ipc_transports_TransportShm_close__E
c37501c0   ti_sdo_ipc_transports_TransportShm_close__F
c37501e0   ti_sdo_ipc_transports_TransportShm_control__E
c3750200   ti_sdo_ipc_transports_TransportShm_getStatus__E
c3750220   ti_sdo_ipc_transports_TransportShm_notifyFxn__I
c3750240   ti_sdo_ipc_transports_TransportShm_openByAddr__E
c3750260   ti_sdo_ipc_transports_TransportShm_setErrFxn__E
c3750280   ti_sdo_ipc_transports_TransportShm_setErrFxn__F
c37502a0   ti_sdo_ipc_transports_TransportShm_sharedMemReq__E
c37502c0   ti_sdo_utils_List_Instance_init__F
c37502e0   ti_sdo_utils_List_Object__destruct__S
c3750300   ti_sdo_utils_List_Object__get__S
c3750320   ti_sdo_utils_List_Params__init__S
c3750340   ti_sdo_utils_List_elemClear__E
c3750360   ti_sdo_utils_List_empty__E
c3750380   ti_sdo_utils_List_next__E
c37503a0   ti_sdo_utils_List_remove__E
c37503c0   ti_sdo_utils_MultiProc_getClusterId__E
c37503e0   ti_sdo_utils_MultiProc_getClusterId__F
c3750400   ti_sdo_utils_NameServer_Module__startupDone__S
c3750420   ti_sdo_utils_NameServer_Module_startup__E
c3750440   ti_sdo_utils_NameServer_Object__first__S
c3750460   ti_sdo_utils_NameServer_Object__next__S
c3750480   ti_sdo_utils_NameServer_Params__init__S
c37504a0   ti_sdo_utils_NameServer_SetupProxy_attach__E
c37504c0   ti_sdo_utils_NameServer_SetupProxy_detach__E
c37504e0   ti_sdo_utils_NameServer_SetupProxy_sharedMemReq__E
c3750500   ti_sysbios_BIOS_RtsGateProxy_enter__E
c3750520   ti_sysbios_BIOS_RtsGateProxy_leave__E
c3750540   ti_sysbios_BIOS_getThreadType__E
c3750560   ti_sysbios_BIOS_nullFunc__I
c3750580   ti_sysbios_BIOS_setThreadType__E
c37505a0   ti_sysbios_BIOS_start__E
c37505c0   ti_sysbios_family_c62_TaskSupport_Module__startupDone__S
c37505e0   ti_sysbios_family_c62_TaskSupport_checkStack__E
c3750600   ti_sysbios_family_c62_TaskSupport_getStackAlignment__E
c3750620   ti_sysbios_family_c64p_Cache_Module_startup__E
c3750640   ti_sysbios_family_c64p_Cache_invL1pAll__E
c3750660   ti_sysbios_family_c64p_Cache_inv__E
c3750680   ti_sysbios_family_c64p_Cache_wbInv__E
c37506a0   ti_sysbios_family_c64p_Cache_wb__E
c37506c0   ti_sysbios_family_c64p_Exception_Module_startup__E
c37506e0   ti_sysbios_family_c64p_Hwi_Module__startupDone__S
c3750700   ti_sysbios_family_c64p_Hwi_Module_startup__E
c3750720   ti_sysbios_family_c64p_Hwi_Params__init__S
c3750740   ti_sysbios_family_c64p_Hwi_clearInterrupt__E
c3750760   ti_sysbios_family_c64p_Hwi_getHandle__E
c3750780   ti_sysbios_family_c64p_Hwi_startup__E
c37507a0   ti_sysbios_family_c64p_Hwi_switchFromBootStack__E
c37507c0   ti_sysbios_family_c64p_Hwi_unPluggedInterrupt__I
c37507e0   ti_sysbios_family_c64p_TimestampProvider_Module_startup__E
c3750800   ti_sysbios_family_c64p_TimestampProvider_Module_startup__F
c3750820   ti_sysbios_family_c64p_TimestampProvider_get64__E
c3750840   ti_sysbios_gates_GateAll_Instance_init__F
c3750860   ti_sysbios_gates_GateAll_query__E
c3750880   ti_sysbios_gates_GateAll_query__F
c37508a0   ti_sysbios_gates_GateHwi_Instance_init__F
c37508c0   ti_sysbios_gates_GateHwi_enter__E
c37508e0   ti_sysbios_gates_GateHwi_leave__E
c3750900   ti_sysbios_gates_GateHwi_query__E
c3750920   ti_sysbios_gates_GateHwi_query__F
c3750940   ti_sysbios_gates_GateMutexPri_Instance_finalize__F
c3750960   ti_sysbios_gates_GateMutexPri_query__E
c3750980   ti_sysbios_gates_GateMutexPri_query__F
c37509a0   ti_sysbios_gates_GateMutex_Instance_finalize__F
c37509c0   ti_sysbios_gates_GateMutex_query__E
c37509e0   ti_sysbios_gates_GateMutex_query__F
c3750a00   ti_sysbios_gates_GateSwi_Instance_init__F
c3750a20   ti_sysbios_gates_GateSwi_enter__E
c3750a40   ti_sysbios_gates_GateSwi_leave__E
c3750a60   ti_sysbios_gates_GateSwi_query__E
c3750a80   ti_sysbios_gates_GateSwi_query__F
c3750aa0   ti_sysbios_hal_Cache_CacheProxy_inv__E
c3750ac0   ti_sysbios_hal_Cache_CacheProxy_wbInv__E
c3750ae0   ti_sysbios_hal_Cache_CacheProxy_wb__E
c3750b00   ti_sysbios_hal_Cache_inv__E
c3750b20   ti_sysbios_hal_Cache_wbInv__E
c3750b40   ti_sysbios_hal_Cache_wb__E
c3750b60   ti_sysbios_hal_Hwi_HwiProxy_Module__startupDone__S
c3750b80   ti_sysbios_hal_Hwi_HwiProxy_clearInterrupt__E
c3750ba0   ti_sysbios_hal_Hwi_HwiProxy_disableInterrupt__E
c3750bc0   ti_sysbios_hal_Hwi_HwiProxy_enableInterrupt__E
c3750be0   ti_sysbios_hal_Hwi_HwiProxy_getStackInfo__E
c3750c00   ti_sysbios_hal_Hwi_HwiProxy_startup__E
c3750c20   ti_sysbios_hal_Hwi_HwiProxy_switchFromBootStack__E
c3750c40   ti_sysbios_hal_Hwi_Module_startup__E
c3750c60   ti_sysbios_hal_Hwi_Module_startup__F
c3750c80   ti_sysbios_hal_Hwi_startup__E
c3750ca0   ti_sysbios_hal_Timer_Module__startupDone__S
c3750cc0   ti_sysbios_hal_Timer_Module_startup__E
c3750ce0   ti_sysbios_hal_Timer_Module_startup__F
c3750d00   ti_sysbios_hal_Timer_TimerProxy_Module__startupDone__S
c3750d20   ti_sysbios_hal_Timer_TimerProxy_getExpiredCounts__E
c3750d40   ti_sysbios_hal_Timer_TimerProxy_getPeriod__E
c3750d60   ti_sysbios_hal_Timer_TimerProxy_setNextTick__E
c3750d80   ti_sysbios_hal_Timer_TimerProxy_startup__E
c3750da0   ti_sysbios_hal_Timer_startup__E
c3750dc0   ti_sysbios_heaps_HeapMem_Module_GateProxy_enter__E
c3750de0   ti_sysbios_heaps_HeapMem_Module_GateProxy_leave__E
c3750e00   ti_sysbios_heaps_HeapMem_Module_GateProxy_query__E
c3750e20   ti_sysbios_heaps_HeapMem_isBlocking__E
c3750e40   ti_sysbios_knl_Clock_Module_startup__E
c3750e60   ti_sysbios_knl_Clock_logTick__E
c3750e80   ti_sysbios_knl_Idle_loop__E
c3750ea0   ti_sysbios_knl_Queue_Instance_init__F
c3750ec0   ti_sysbios_knl_Queue_Object__destruct__S
c3750ee0   ti_sysbios_knl_Queue_Object__get__S
c3750f00   ti_sysbios_knl_Queue_empty__E
c3750f20   ti_sysbios_knl_Semaphore_Instance_finalize__F
c3750f40   ti_sysbios_knl_Semaphore_Params__init__S
c3750f60   ti_sysbios_knl_Swi_Instance_finalize__F
c3750f80   ti_sysbios_knl_Swi_Module_startup__E
c3750fa0   ti_sysbios_knl_Swi_Params__init__S
c3750fc0   ti_sysbios_knl_Swi_disable__E
c3750fe0   ti_sysbios_knl_Swi_startup__E
c3751000   ti_sysbios_knl_Task_Module_startup__E
c3751020   ti_sysbios_knl_Task_Object__first__S
c3751040   ti_sysbios_knl_Task_Object__next__S
c3751060   ti_sysbios_knl_Task_Params__init__S
c3751080   ti_sysbios_knl_Task_SupportProxy_Module__startupDone__S
c37510a0   ti_sysbios_knl_Task_SupportProxy_checkStack__E
c37510c0   ti_sysbios_knl_Task_SupportProxy_getStackAlignment__E
c37510e0   ti_sysbios_knl_Task_SupportProxy_start__E
c3751100   ti_sysbios_knl_Task_SupportProxy_swap__E
c3751120   ti_sysbios_knl_Task_disable__E
c3751140   ti_sysbios_knl_Task_getPri__E
c3751160   ti_sysbios_knl_Task_self__E
c3751180   ti_sysbios_knl_Task_startup__E
c37511a0   ti_sysbios_timers_timer64_Timer_Module__startupDone__S
c37511c0   ti_sysbios_timers_timer64_Timer_Module_startup__E
c37511e0   ti_sysbios_timers_timer64_Timer_TimerSupportProxy_enable__E
c3751200   ti_sysbios_timers_timer64_Timer_setNextTick__E
c3751220   ti_sysbios_xdcruntime_GateThreadSupport_Instance_finalize__F
c3751240   ti_sysbios_xdcruntime_GateThreadSupport_enter__E
c3751260   ti_sysbios_xdcruntime_GateThreadSupport_enter__F
c3751280   ti_sysbios_xdcruntime_GateThreadSupport_leave__E
c37512a0   ti_sysbios_xdcruntime_GateThreadSupport_leave__F
c37512c0   ti_sysbios_xdcruntime_GateThreadSupport_query__E
c37512e0   ti_sysbios_xdcruntime_GateThreadSupport_query__F
c3751300   xdc_runtime_Error_check__E
c3751320   xdc_runtime_Error_init__E
c3751340   xdc_runtime_Error_print__E
c3751360   xdc_runtime_Error_raiseX__E
c3751380   xdc_runtime_GateNull_enter__E
c37513a0   xdc_runtime_GateNull_enter__F
c37513c0   xdc_runtime_GateNull_leave__E
c37513e0   xdc_runtime_GateNull_leave__F
c3751400   xdc_runtime_GateNull_query__E
c3751420   xdc_runtime_GateNull_query__F
c3751440   xdc_runtime_Gate_enterSystem__E
c3751460   xdc_runtime_Gate_enterSystem__F
c3751480   xdc_runtime_Gate_leaveSystem__E
c37514a0   xdc_runtime_Gate_leaveSystem__F
c3751560   xdc_runtime_LoggerBuf_Module_GateProxy_enter__E
c3751580   xdc_runtime_LoggerBuf_Module_GateProxy_leave__E
c37515a0   xdc_runtime_LoggerBuf_Module_startup__E
c37515c0   xdc_runtime_LoggerBuf_TimestampProxy_get64__E
c37515e0   xdc_runtime_LoggerBuf_disable__E
c3751600   xdc_runtime_LoggerBuf_disable__F
c3751620   xdc_runtime_LoggerBuf_enable__E
c3751640   xdc_runtime_LoggerBuf_enable__F
c3751660   xdc_runtime_LoggerBuf_getFilterLevel__E
c3751680   xdc_runtime_LoggerBuf_setFilterLevel__E
c37516a0   xdc_runtime_LoggerBuf_write0__E
c37516c0   xdc_runtime_LoggerBuf_write1__E
c37516e0   xdc_runtime_LoggerBuf_write1__F
c3751700   xdc_runtime_LoggerBuf_write2__E
c3751720   xdc_runtime_LoggerBuf_write2__F
c3751740   xdc_runtime_LoggerBuf_write4__E
c3751760   xdc_runtime_Memory_HeapProxy_alloc__E
c3751780   xdc_runtime_Memory_HeapProxy_free__E
c37517a0   xdc_runtime_Memory_alloc__E
c37517c0   xdc_runtime_Memory_calloc__E
c37517e0   xdc_runtime_Memory_free__E
c3751800   xdc_runtime_Memory_getMaxDefaultTypeAlign__E
c3751820   xdc_runtime_Memory_getMaxDefaultTypeAlign__F
c3751840   xdc_runtime_Memory_valloc__E
c3751860   xdc_runtime_Startup_Module__startupDone__S
c3751880   xdc_runtime_Startup_exec__E
c37518a0   xdc_runtime_Startup_exec__I
c37518c0   xdc_runtime_Startup_reset__I
c37518e0   xdc_runtime_SysMin_Module_startup__E
c3751900   xdc_runtime_SysMin_abort__E
c3751920   xdc_runtime_SysMin_exit__E
c3751940   xdc_runtime_SysMin_putch__E
c3751960   xdc_runtime_SysMin_ready__E
c3751980   xdc_runtime_SysMin_ready__F
c37519a0   xdc_runtime_System_Module_GateProxy_enter__E
c37519c0   xdc_runtime_System_Module_GateProxy_leave__E
c37519e0   xdc_runtime_System_Module_startup__E
c3751a00   xdc_runtime_System_Module_startup__F
c3751a20   xdc_runtime_System_SupportProxy_abort__E
c3751a40   xdc_runtime_System_SupportProxy_exit__E
c3751a60   xdc_runtime_System_SupportProxy_putch__E
c3751a80   xdc_runtime_System_SupportProxy_ready__E
c3751aa0   xdc_runtime_System_abort__E
c3751ac0   xdc_runtime_System_atexit__E
c3751ae0   xdc_runtime_System_exit__E
c3751b00   xdc_runtime_System_exit__F
c3751b20   xdc_runtime_System_lastFxn__I
c3751b40   xdc_runtime_System_vsnprintf__E
c3751b60   xdc_runtime_System_vsnprintf__F
c3751b80   xdc_runtime_Text_cordText__E
c3751ba0   xdc_runtime_Text_putLab__E
c3751bc0   xdc_runtime_Text_putSite__E
c3751be0   xdc_runtime_Text_ropeText__E
c3751c00   xdc_runtime_Text_visitRope__I
c3751c20   xdc_runtime_knl_GateThread_Module__startupDone__S
c3751c40   xdc_runtime_knl_GateThread_Proxy_Object__create__S
c3751c60   xdc_runtime_knl_GateThread_Proxy_Object__delete__S
c3751c80   xdc_runtime_knl_GateThread_Proxy_enter__E
c3751ca0   xdc_runtime_knl_GateThread_Proxy_leave__E
c3751cc0   xdc_runtime_knl_GateThread_Proxy_query__E
c3751ce0   xdc_runtime_knl_GateThread_enter__E
c3751d00   xdc_runtime_knl_GateThread_enter__F
c3751d20   xdc_runtime_knl_GateThread_leave__E
c3751d40   xdc_runtime_knl_GateThread_leave__F
c3751d60   xdc_runtime_knl_GateThread_query__E
c3751d80   xdc_runtime_knl_GateThread_query__F
c3780804   FrameQBufMgr_ShMem_fxns
c3781010   ti_sdo_ipc_GateMP_Module_State_0_remoteSystemGates__A
c3781810   ti_sdo_ipc_GateMP_Module__root__V
c378181c   ti_sdo_ipc_GateMP_Module__state__V
c3781864   ti_sdo_ipc_Ipc_Module__root__V
c3781868   ti_sdo_ipc_Ipc_Module__state__V
c3781874   ti_sdo_ipc_ListMP_Module__root__V
c3781880   ti_sdo_ipc_ListMP_Module__state__V
c3781884   ti_sdo_ipc_MessageQ_Module__root__V
c3781890   ti_sdo_ipc_MessageQ_Module__state__V
c37818b0   ti_sdo_ipc_Notify_Module__root__V
c37818bc   ti_sdo_ipc_Notify_Module__state__V
c37818c4   ti_sdo_ipc_SharedRegion_Module__root__V
c37818c8   ti_sdo_ipc_SharedRegion_Module__state__V
c37818cc   ti_sdo_ipc_family_da830_InterruptDsp_Module__root__V
c37818ce   ti_sdo_ipc_family_da830_NotifySetup_Module__root__V
c37818d0   ti_sdo_ipc_gates_GateMPSupportNull_Module__root__V
c37818dc   ti_sdo_ipc_gates_GatePeterson_Module__root__V
c37818e8   ti_sdo_ipc_heaps_HeapMemMP_Module__root__V
c37818f4   ti_sdo_ipc_heaps_HeapMemMP_Module__state__V
c37818f8   ti_sdo_ipc_notifyDrivers_NotifyDriverShm_Module__root__V
c3781904   ti_sdo_ipc_nsremote_NameServerRemoteNotify_Module__root__V
c3781910   ti_sdo_ipc_transports_TransportShm_Module__root__V
c378191c   ti_sdo_ipc_transports_TransportShmSetup_Module__root__V
c3781920   ti_sdo_ipc_transports_TransportShmSetup_Module__state__V
c3781924   ti_sdo_utils_List_Module__root__V
c3781930   ti_sdo_utils_MultiProc_Module__root__V
c3781932   ti_sdo_utils_MultiProc_Module__state__V
c3781938   ti_sdo_utils_NameServer_Module__root__V
c3781944   ti_sdo_utils_NameServer_Module__state__V
c378194c   ti_sdo_utils_NameServerRemoteNull_Module__root__V
c3781958   ti_sysbios_BIOS_Module__root__V
c378195c   ti_sysbios_BIOS_Module__state__V
c378197c   ti_sysbios_family_c62_IntrinsicsSupport_Module__root__V
c378197e   ti_sysbios_family_c62_TaskSupport_Module__root__V
c3781980   ti_sysbios_family_c64p_Cache_Module__root__V
c3781984   ti_sysbios_family_c64p_Cache_Module__state__V
c3781988   ti_sysbios_family_c64p_Exception_Module__root__V
c378198c   ti_sysbios_family_c64p_Exception_Module__state__V
c37819bc   ti_sysbios_family_c64p_Hwi_Module__root__V
c37819c8   ti_sysbios_family_c64p_Hwi_Module__state__V
c3781a30   ti_sysbios_family_c64p_primus_TimerSupport_Module__root__V
c3781a34   ti_sysbios_family_c64p_primus_TimerSupport_Module__state__V
c3781a38   ti_sysbios_gates_GateAll_Module__root__V
c3781a44   ti_sysbios_gates_GateHwi_Module__root__V
c3781a50   ti_sysbios_gates_GateMutex_Module__root__V
c3781a5c   ti_sysbios_gates_GateMutexPri_Module__root__V
c3781a68   ti_sysbios_gates_GateSwi_Module__root__V
c3781a74   ti_sysbios_hal_Cache_Module__root__V
c3781a78   ti_sysbios_hal_Hwi_Module__root__V
c3781a84   ti_sysbios_hal_Timer_Module__root__V
c3781a90   ti_sysbios_heaps_HeapMem_Module__root__V
c3781a9c   ti_sysbios_knl_Clock_Module__root__V
c3781aa8   ti_sysbios_knl_Clock_Module__state__V
c3781ad0   ti_sysbios_knl_Idle_Module__root__V
c3781ad2   ti_sysbios_knl_Intrinsics_Module__root__V
c3781ad4   ti_sysbios_knl_Queue_Module__root__V
c3781ae0   ti_sysbios_knl_Semaphore_Module__root__V
c3781aec   ti_sysbios_knl_Swi_Module__root__V
c3781af8   ti_sysbios_knl_Swi_Module__state__V
c3781b14   ti_sysbios_knl_Task_Module__root__V
c3781b20   ti_sysbios_knl_Task_Module__state__V
c3781b64   ti_sysbios_syncs_SyncSem_Module__root__V
c3781b70   ti_sysbios_timers_timer64_Timer_Module__root__V
c3781b7c   ti_sysbios_timers_timer64_Timer_Module__state__V
c3781b90   ti_sysbios_xdcruntime_GateThreadSupport_Module__root__V
c3781b9c   xdc_runtime_Defaults_Module__root__V
c3781b9e   xdc_runtime_Error_Module__root__V
c3781ba0   xdc_runtime_Error_Module__state__V
c3781ba4   xdc_runtime_GateNull_Module__root__V
c3781bac   xdc_runtime_LoggerBuf_Module__root__V
c3781bb4   xdc_runtime_LoggerBuf_Module__state__V
c3781bba   xdc_runtime_Main_Module__root__V
c3781bbc   xdc_runtime_Memory_Module__state__V
c3781bc0   xdc_runtime_Registry_Module__root__V
c3781bc4   xdc_runtime_Registry_Module__state__V
c3781bcc   xdc_runtime_Startup_Module__state__V
c3781bd4   xdc_runtime_SysMin_Module__state__V
c3781be0   xdc_runtime_System_Module__state__V
c3781bec   xdc_runtime_Text_Module__state__V
c3781bf4   xdc_runtime_knl_GateThread_Module__root__V
c3781c00   __xdc__init__addr
c3781e50   ti_sdo_utils_NameServer_Object__table__V
c3781f30   FrameQ_ShMem_fxns
c3781fa0   FrameQ_ShMem_module_obj
c3782010   ti_sdo_ipc_SharedRegion_Module_State_0_regions__A
c37820a0   ti_sysbios_knl_Swi_Module_State_0_readyQ__A
c3782120   ti_sysbios_knl_Task_Module_State_0_readyQ__A
c37821a0   ti_sysbios_timers_timer64_Timer_Module_State_0_device__A
c3782200   TSK_idle
c3782200   ti_sysbios_knl_Task_Object__table__V
c3782250   ti_sysbios_timers_timer64_Timer_Object__table__V
c3782320   ti_sysbios_gates_GateMutex_Object__table__V
c3782360   ti_sysbios_knl_Swi_Object__table__V
c3782390   ti_sdo_ipc_Ipc_Module_State_0_procEntry__A
c37823b8   xdc_runtime_LoggerBuf_Object__table__V
c37823e0   ti_sdo_ipc_MessageQ_Module_State_0_heaps__A
c3782400   ti_sysbios_timers_timer64_Timer_Module_State_0_gctrl__A
c3782420   ti_sysbios_timers_timer64_Timer_Module_State_0_handles__A
c3782440   ti_sysbios_timers_timer64_Timer_Module_State_0_intFreqs__A
c3782460   xdc_runtime_System_Module_State_0_atexitHandlers__A
c378249c   SyslinkMemMgr_SharedMemory_fxns
c37824b8   SyslinkMemMgr_TilerMemory_fxns
c37824d8   ti_sysbios_family_c64p_Hwi_Object__table__V
c37824f0   ti_sysbios_gates_GateMutexPri_Object__table__V
c3782508   ti_sysbios_heaps_HeapMem_Object__table__V
c3782520   ti_sysbios_gates_GateAll_Object__table__V
c3782530   _cleanup_ptr
c3782534   _dtors_ptr
c3782538   __TI_enable_exit_profile_output
c378253c   Syslink_RingIO_moduleCfg
c3782544   Syslink_RingIOShm_moduleCfg
c3782548   ti_sysbios_gates_GateSwi_Object__table__V
c3782554   _lock
c3782558   _unlock
c3782560   ti_sdo_ipc_Notify_Module_State_0_notifyHandles__A
c3782568   ti_sdo_ipc_transports_TransportShmSetup_Module_State_0_handles__A
c3782570   ti_sysbios_family_c64p_primus_TimerSupport_Module_State_0_suspSrc__A
c3782578   ti_sysbios_hal_Hwi_Object__table__V
c3782580   ti_sysbios_hal_Timer_Object__table__V
c3782588   ti_sdo_ipc_GateMP_Module_State_0_remoteCustom2Gates__A
c3782590   ti_sdo_ipc_Notify_Module_State_0_notifyHandles_0__A
c3782598   ti_sdo_ipc_Notify_Module_State_0_notifyHandles_1__A
c37825a0   ti_sysbios_gates_GateHwi_Object__table__V
c37825a8   ti_sysbios_knl_Task_Module_State_0_idleTask__A
c37825b0   xdc_runtime_GateNull_Object__table__V
c37825b8   xdc_runtime_Text_charTab__A
c3785ca4   ti_sdo_ipc_GateMP_E_gateUnavailable__C
c3785ca8   xdc_runtime_Text_nodeTab__A
c37860c4   ti_sdo_ipc_GateMP_E_localGate__C
c37860c8   xdc_runtime_Startup_sfxnTab__A
c3786108   ti_sysbios_knl_Task_Object__PARAMS__C
c3786144   xdc_runtime_LoggerBuf_Module__FXNS__C
c3786180   ti_sdo_ipc_notifyDrivers_NotifyDriverShm_Module__FXNS__C
c37861b8   ti_sdo_ipc_GateMP_Object__PARAMS__C
c37861ec   ti_sdo_ipc_notifyDrivers_NotifyDriverShm_Object__PARAMS__C
c3786220   ti_sdo_ipc_heaps_HeapMemMP_Object__PARAMS__C
c3786250   ti_sysbios_family_c64p_Hwi_Object__PARAMS__C
c37862ac   ti_sdo_ipc_ListMP_Object__PARAMS__C
c37862d8   ti_sdo_ipc_gates_GateMPSupportNull_Module__FXNS__C
c3786304   ti_sdo_ipc_gates_GatePeterson_Module__FXNS__C
c3786330   ti_sdo_utils_NameServer_Object__PARAMS__C
c378635c   ti_sdo_ipc_heaps_HeapMemMP_Module__FXNS__C
c3786384   ti_sdo_ipc_nsremote_NameServerRemoteNotify_Module__FXNS__C
c37863ac   ti_sdo_ipc_transports_TransportShm_Module__FXNS__C
c37863d4   ti_sdo_ipc_transports_TransportShm_Object__PARAMS__C
c37863fc   ti_sysbios_heaps_HeapMem_Module__FXNS__C
c3786424   ti_sysbios_knl_Swi_Object__PARAMS__C
c378644c   xdc_runtime_LoggerBuf_Object__PARAMS__C
c3786498   ti_sdo_ipc_gates_GateMPSupportNull_Object__PARAMS__C
c37864bc   ti_sdo_ipc_gates_GatePeterson_Object__PARAMS__C
c37864e0   ti_sysbios_gates_GateAll_Module__FXNS__C
c3786504   ti_sysbios_gates_GateHwi_Module__FXNS__C
c3786528   ti_sysbios_gates_GateMutexPri_Module__FXNS__C
c378654c   ti_sysbios_gates_GateMutex_Module__FXNS__C
c3786570   ti_sysbios_gates_GateSwi_Module__FXNS__C
c3786594   ti_sysbios_heaps_HeapMem_Object__PARAMS__C
c37865b8   ti_sysbios_knl_Semaphore_Object__PARAMS__C
c37865dc   xdc_runtime_GateNull_Module__FXNS__C
c3786600   xdc_runtime_knl_GateThread_Module__FXNS__C
c3786624   ti_sdo_ipc_GateMP_Object__DESC__C
c3786644   ti_sdo_ipc_ListMP_Object__DESC__C
c3786664   ti_sdo_ipc_Notify_Object__DESC__C
c3786684   ti_sdo_ipc_gates_GateMPSupportNull_Object__DESC__C
c37866a4   ti_sdo_ipc_gates_GatePeterson_Object__DESC__C
c37866c4   ti_sdo_ipc_heaps_HeapMemMP_Object__DESC__C
c37866e4   ti_sdo_ipc_notifyDrivers_NotifyDriverShm_Object__DESC__C
c3786704   ti_sdo_ipc_nsremote_NameServerRemoteNotify_Object__DESC__C
c3786724   ti_sdo_ipc_nsremote_NameServerRemoteNotify_Object__PARAMS__C
c3786744   ti_sdo_ipc_transports_TransportShm_Object__DESC__C
c3786764   ti_sdo_utils_List_Object__DESC__C
c3786784   ti_sdo_utils_NameServer_Object__DESC__C
c37867a4   ti_sysbios_family_c64p_Hwi_Object__DESC__C
c37867c4   ti_sysbios_gates_GateAll_Object__DESC__C
c37867e4   ti_sysbios_gates_GateHwi_Object__DESC__C
c3786804   ti_sysbios_gates_GateMutexPri_Object__DESC__C
c3786824   ti_sysbios_gates_GateMutex_Object__DESC__C
c3786844   ti_sysbios_gates_GateSwi_Object__DESC__C
c3786864   ti_sysbios_heaps_HeapMem_Object__DESC__C
c3786884   ti_sysbios_knl_Queue_Object__DESC__C
c37868a4   ti_sysbios_knl_Semaphore_Object__DESC__C
c37868c4   ti_sysbios_knl_Swi_Object__DESC__C
c37868e4   ti_sysbios_knl_Task_Object__DESC__C
c3786904   ti_sysbios_xdcruntime_GateThreadSupport_Object__DESC__C
c3786924   xdc_runtime_GateNull_Object__DESC__C
c3786944   xdc_runtime_LoggerBuf_Object__DESC__C
c3786964   ti_sdo_ipc_Ipc_E_internal__C
c3786968   xdc_runtime_Startup_sfxnRts__A
c3786988   xdc_runtime_knl_GateThread_Object__DESC__C
c37869dc   ti_sdo_ipc_Ipc_E_nameFailed__C
c3786a28   ti_sdo_ipc_Notify_Object__PARAMS__C
c3786a40   ti_sdo_utils_List_Object__PARAMS__C
c3786a58   ti_sysbios_gates_GateAll_Object__PARAMS__C
c3786a70   ti_sysbios_gates_GateHwi_Object__PARAMS__C
c3786a88   ti_sysbios_gates_GateMutexPri_Object__PARAMS__C
c3786aa0   ti_sysbios_gates_GateMutex_Object__PARAMS__C
c3786ab8   ti_sysbios_gates_GateSwi_Object__PARAMS__C
c3786ad0   ti_sysbios_knl_Queue_Object__PARAMS__C
c3786ae8   ti_sysbios_knl_Task_hooks__A
c3786b00   ti_sysbios_xdcruntime_GateThreadSupport_Object__PARAMS__C
c3786b18   xdc_runtime_GateNull_Object__PARAMS__C
c3786b30   xdc_runtime_knl_GateThread_Object__PARAMS__C
c3786b5e   ti_sdo_ipc_GateMP_Module__id__C
c3786b74   ti_sdo_ipc_Ipc_E_versionMismatch__C
c3786b8c   ti_sdo_ipc_Ipc_numUserFxns__C
c3786ba4   ti_sdo_ipc_Ipc_procSync__C
c3786bbc   ti_sdo_ipc_Ipc_userFxns__C
c3786bd2   ti_sdo_ipc_Ipc_generateSlaveDataForHost__C
c3786bd4   ti_sdo_ipc_MessageQ_Instance_State_highList__O
c3786c02   ti_sdo_ipc_Ipc_sr0MemorySetup__C
c3786c04   ti_sdo_ipc_MessageQ_Instance_State_normalList__O
c3786c1a   ti_sdo_ipc_ListMP_Module__id__C
c3786c1c   ti_sdo_ipc_MessageQ_Object__count__C
c3786c5c   ti_sdo_ipc_Notify_Module__gateObj__C
c3786c6c   ti_sdo_ipc_Notify_Object__heap__C
c3786c70   ti_sdo_ipc_Ipc_userFxns__A
c3786c7c   ti_sysbios_family_c64p_Cache_initSize__C
c3786c90   ti_sdo_utils_MultiProc_nameList__A
c3786c98   ti_sysbios_knl_Idle_coreList__C
c3786ca0   ti_sysbios_knl_Idle_funcList__C
c3786ca8   ti_sysbios_knl_Task_hooks__C
c3786cb0   xdc_runtime_Startup_firstFxns__A
c3786cb8   xdc_runtime_Startup_firstFxns__C
c3786cc0   xdc_runtime_Startup_lastFxns__C
c3786cc8   ti_sdo_ipc_Notify_numEvents__C
c3786ccc   ti_sdo_ipc_Notify_sendEventPollCount__C
c3786cd0   ti_sdo_ipc_SharedRegion_INVALIDSRPTR__C
c3786cd4   ti_sdo_ipc_SharedRegion_numOffsetBits__C
c3786cd8   ti_sdo_ipc_SharedRegion_offsetMask__C
c3786cdc   ti_sdo_ipc_family_da830_NotifySetup_armRecvIntId0__C
c3786ce0   ti_sdo_ipc_family_da830_NotifySetup_armRecvIntId1__C
c3786ce4   ti_sdo_ipc_family_da830_NotifySetup_dspIntVectId0__C
c3786ce8   ti_sdo_ipc_family_da830_NotifySetup_dspIntVectId1__C
c3786cec   ti_sdo_ipc_family_da830_NotifySetup_dspRecvIntId0__C
c3786cf0   ti_sdo_ipc_family_da830_NotifySetup_dspRecvIntId1__C
c3786cf4   ti_sdo_ipc_gates_GatePeterson_E_gateRemotelyOpened__C
c3786cf8   ti_sdo_ipc_heaps_HeapMemMP_E_memory__C
c3786cfc   ti_sdo_ipc_interfaces_IGateMPSupport_Interface__BASE__C
c3786d00   ti_sdo_ipc_interfaces_IMessageQTransport_Interface__BASE__C
c3786d04   ti_sdo_ipc_interfaces_INotifyDriver_Interface__BASE__C
c3786d08   ti_sdo_ipc_notifyDrivers_NotifyDriverShm_Object__heap__C
c3786d0c   ti_sdo_ipc_nsremote_NameServerRemoteNotify_Instance_State_semMultiBlock__O
c3786d10   ti_sdo_ipc_nsremote_NameServerRemoteNotify_Instance_State_semRemoteWait__O
c3786d14   ti_sdo_ipc_nsremote_NameServerRemoteNotify_Instance_State_swiObj__O
c3786d18   ti_sdo_ipc_nsremote_NameServerRemoteNotify_notifyEventId__C
c3786d1c   ti_sdo_ipc_nsremote_NameServerRemoteNotify_timeout__C
c3786d20   ti_sdo_ipc_transports_TransportShmSetup_priority__C
c3786d24   ti_sdo_ipc_transports_TransportShm_Instance_State_swiObj__O
c3786d28   ti_sdo_utils_INameServerRemote_Interface__BASE__C
c3786d2c   ti_sdo_utils_MultiProc_nameList__C
c3786d30   ti_sdo_utils_NameServer_E_entryExists__C
c3786d34   ti_sdo_utils_NameServer_E_maxReached__C
c3786d38   ti_sdo_utils_NameServer_Instance_State_freeList__O
c3786d3c   ti_sdo_utils_NameServer_Instance_State_nameList__O
c3786d40   ti_sdo_utils_NameServer_Object__count__C
c3786d44   ti_sdo_utils_NameServer_Object__heap__C
c3786d48   ti_sysbios_BIOS_installedErrorHook__C
c3786d4c   ti_sysbios_family_c62_TaskSupport_stackAlignment__C
c3786d50   ti_sysbios_family_c64p_Cache_EMIFA_BASE__C
c3786d54   ti_sysbios_family_c64p_Cache_EMIFA_CFG__C
c3786d58   ti_sysbios_family_c64p_Cache_EMIFA_LENGTH__C
c3786d5c   ti_sysbios_family_c64p_Cache_EMIFB_BASE__C
c3786d60   ti_sysbios_family_c64p_Cache_EMIFB_CFG__C
c3786d64   ti_sysbios_family_c64p_Cache_EMIFB_LENGTH__C
c3786d68   ti_sysbios_family_c64p_Cache_EMIFC_BASE__C
c3786d6c   ti_sysbios_family_c64p_Cache_EMIFC_CFG__C
c3786d70   ti_sysbios_family_c64p_Cache_EMIFC_LENGTH__C
c3786d74   ti_sysbios_family_c64p_Cache_MAR0_31__C
c3786d78   ti_sysbios_family_c64p_Cache_MAR128_159__C
c3786d7c   ti_sysbios_family_c64p_Cache_MAR160_191__C
c3786d80   ti_sysbios_family_c64p_Cache_MAR192_223__C
c3786d84   ti_sysbios_family_c64p_Cache_MAR224_255__C
c3786d88   ti_sysbios_family_c64p_Cache_MAR32_63__C
c3786d8c   ti_sysbios_family_c64p_Cache_MAR64_95__C
c3786d90   ti_sysbios_family_c64p_Cache_MAR96_127__C
c3786d94   ti_sysbios_family_c64p_Exception_E_exceptionMax__C
c3786d98   ti_sysbios_family_c64p_Exception_E_exceptionMin__C
c3786d9c   ti_sysbios_family_c64p_Exception_exceptionHook__C
c3786da0   ti_sysbios_family_c64p_Exception_externalHook__C
c3786da4   ti_sysbios_family_c64p_Exception_internalHook__C
c3786da8   ti_sysbios_family_c64p_Exception_nmiHook__C
c3786dac   ti_sysbios_family_c64p_Hwi_E_alreadyDefined__C
c3786db0   ti_sysbios_family_c64p_Hwi_E_handleNotFound__C
c3786db4   ti_sysbios_gates_GateMutexPri_Instance_State_pendQ__O
c3786db8   ti_sysbios_gates_GateMutex_Instance_State_sem__O
c3786dbc   ti_sysbios_hal_Hwi_E_stackOverflow__C
c3786dc0   ti_sysbios_heaps_HeapMem_E_memory__C
c3786dc4   ti_sysbios_heaps_HeapMem_Module__gateObj__C
c3786dc8   ti_sysbios_heaps_HeapMem_Object__count__C
c3786dcc   ti_sysbios_heaps_HeapMem_reqAlign__C
c3786dd0   ti_sysbios_knl_Clock_Module_State_clockQ__O
c3786dd4   ti_sysbios_knl_Clock_tickMode__C
c3786dd8   ti_sysbios_knl_Clock_tickSource__C
c3786ddc   ti_sysbios_knl_Semaphore_Instance_State_pendQ__O
c3786de0   ti_sysbios_knl_Idle_coreList__A
c3786de4   ti_sysbios_knl_Swi_Object__count__C
c3786de8   ti_sysbios_knl_Idle_funcList__A
c3786dec   ti_sysbios_knl_Swi_numPriorities__C
c3786df0   ti_sysbios_knl_Task_E_deleteNotAllowed__C
c3786df4   ti_sysbios_knl_Task_E_spOutOfBounds__C
c3786df8   ti_sysbios_knl_Task_E_stackOverflow__C
c3786dfc   ti_sysbios_knl_Task_Module_State_inactiveQ__O
c3786e00   ti_sysbios_knl_Task_Module_State_terminatedQ__O
c3786e04   ti_sysbios_knl_Task_Object__count__C
c3786e08   ti_sysbios_knl_Task_Object__heap__C
c3786e0c   ti_sysbios_knl_Task_allBlockedFunc__C
c3786e10   ti_sysbios_knl_Task_defaultStackHeap__C
c3786e14   ti_sysbios_knl_Task_defaultStackSize__C
c3786e18   ti_sysbios_knl_Task_numConstructedTasks__C
c3786e1c   ti_sysbios_timers_timer64_Timer_E_cannotSupport__C
c3786e20   ti_sysbios_timers_timer64_Timer_anyMask__C
c3786e24   ti_sysbios_timers_timer64_Timer_freqDivisor__C
c3786e28   ti_sysbios_timers_timer64_Timer_numLocalTimers__C
c3786e2c   ti_sysbios_timers_timer64_Timer_numTimerDevices__C
c3786e30   ti_sysbios_xdcruntime_GateThreadSupport_Instance_State_gate__O
c3786e34   xdc_runtime_Assert_E_assertFailed__C
c3786e38   xdc_runtime_Core_A_initializedParams__C
c3786e3c   xdc_runtime_Core_Module__diagsEnabled__C
c3786e40   xdc_runtime_Core_Module__diagsIncluded__C
c3786e44   xdc_runtime_Core_Module__diagsMask__C
c3786e48   xdc_runtime_Error_E_memory__C
c3786e4c   xdc_runtime_Error_Module__diagsEnabled__C
c3786e50   xdc_runtime_Error_Module__diagsIncluded__C
c3786e54   xdc_runtime_Error_Module__diagsMask__C
c3786e58   xdc_runtime_Error_Module__loggerFxn8__C
c3786e5c   xdc_runtime_Error_Module__loggerObj__C
c3786e60   xdc_runtime_Error_policy__C
c3786e64   xdc_runtime_Error_raiseHook__C
c3786e68   xdc_runtime_IFilterLogger_Interface__BASE__C
c3786e6c   xdc_runtime_IGateProvider_Interface__BASE__C
c3786e70   xdc_runtime_IHeap_Interface__BASE__C
c3786e74   xdc_runtime_ILogger_Interface__BASE__C
c3786e78   xdc_runtime_IModule_Interface__BASE__C
c3786e7c   xdc_runtime_Log_L_error__C
c3786e80   xdc_runtime_LoggerBuf_E_badLevel__C
c3786e84   xdc_runtime_LoggerBuf_Module__gateObj__C
c3786e88   xdc_runtime_LoggerBuf_Object__count__C
c3786e8c   xdc_runtime_LoggerBuf_statusLogger__C
c3786e90   xdc_runtime_Memory_defaultHeapInstance__C
c3786e94   xdc_runtime_Startup_execImpl__C
c3786e98   xdc_runtime_Startup_lastFxns__A
c3786e9c   xdc_runtime_Startup_maxPasses__C
c3786ea0   xdc_runtime_Startup_sfxnRts__C
c3786ea4   xdc_runtime_Startup_sfxnTab__C
c3786ea8   xdc_runtime_SysMin_bufSize__C
c3786eac   xdc_runtime_SysMin_outputFunc__C
c3786eb0   xdc_runtime_System_Module__gateObj__C
c3786eb4   xdc_runtime_System_extendFxn__C
c3786eb8   xdc_runtime_System_maxAtexitHandlers__C
c3786ebc   xdc_runtime_Text_charTab__C
c3786ec0   xdc_runtime_Text_nameEmpty__C
c3786ec4   xdc_runtime_Text_nameStatic__C
c3786ec8   xdc_runtime_Text_nameUnknown__C
c3786ecc   xdc_runtime_Text_nodeTab__C
c3786ed0   xdc_runtime_Text_visitRopeFxn__C
c3786ed4   ti_sdo_ipc_Notify_numLines__C
c3786ed6   ti_sdo_ipc_SharedRegion_numEntries__C
c3786ed8   ti_sdo_ipc_SharedRegion_translate__C
c3786eda   ti_sdo_ipc_family_da830_NotifySetup_useSecondLine__C
c3786edc   ti_sdo_ipc_gates_GatePeterson_Module__id__C
c3786ede   ti_sdo_ipc_heaps_HeapMemMP_Module__id__C
c3786ee0   ti_sdo_ipc_nsremote_NameServerRemoteNotify_Module__id__C
c3786ee2   ti_sdo_ipc_transports_TransportShm_Module__id__C
c3786ee4   ti_sdo_ipc_transports_TransportShm_notifyEventId__C
c3786ee6   ti_sdo_utils_MultiProc_numProcessors__C
c3786ee8   ti_sdo_utils_MultiProc_numProcsInCluster__C
c3786eea   ti_sdo_utils_NameServer_Module__id__C
c3786eec   ti_sdo_utils_NameServer_singleProcessor__C
c3786eee   ti_sysbios_family_c64p_Exception_Module__id__C
c3786ef0   ti_sysbios_family_c64p_Exception_enableExternalMPC__C
c3786ef2   ti_sysbios_family_c64p_Exception_enablePrint__C
c3786ef4   ti_sysbios_family_c64p_Exception_useInternalBuffer__C
c3786ef6   ti_sysbios_family_c64p_Hwi_Module__id__C
c3786ef8   ti_sysbios_hal_Hwi_Module__id__C
c3786efa   ti_sysbios_heaps_HeapMem_Module__id__C
c3786efc   ti_sysbios_knl_Task_Module__id__C
c3786efe   ti_sysbios_knl_Task_deleteTerminatedTasks__C
c3786f00   ti_sysbios_knl_Task_initStackFlag__C
c3786f02   ti_sysbios_timers_timer64_Timer_Module__id__C
c3786f04   ti_sysbios_timers_timer64_Timer_startupNeeded__C
c3786f06   xdc_runtime_Core_Module__id__C
c3786f08   xdc_runtime_Error_Module__loggerDefined__C
c3786f0a   xdc_runtime_Error_maxDepth__C
c3786f0c   xdc_runtime_LoggerBuf_Module__id__C
c3786f0e   xdc_runtime_LoggerBuf_filterByLevel__C
c3786f10   xdc_runtime_Memory_Module__id__C
c3786f12   xdc_runtime_SysMin_flushAtExit__C
c3786f14   xdc_runtime_Text_charCnt__C
c3786f16   xdc_runtime_Text_isLoaded__C
c3786f18   xdc_runtime_Text_registryModsLastId__C
c3786f1a   xdc_runtime_Text_unnamedModsLastId__C
c3786f20   _stack
c3787f20   __TI_STACK_END
c3787fa4   __TI_STATIC_BASE
c3787fa4   gFrameQ_nsHandle
c3787fa8   gFrameQBufMgr_nsHandle
c3787fac   Syslink_terminateEventId
c3787fb0   Syslink_terminateEventLineId
c3787fb4   CLIENTNOTIFYMGR_NAMESERVERNAME
c3787fc8   FrameQ_ShMem_module
c3788000   ti_sysbios_family_c64p_Hwi0
c3788000   ti_sysbios_family_c64p_Hwi_int0
c3788020   ti_sysbios_family_c64p_Hwi_int1
c3788040   ti_sysbios_family_c64p_Hwi_int2
c3788060   ti_sysbios_family_c64p_Hwi_int3
c3788080   ti_sysbios_family_c64p_Hwi_int4
c37880a0   ti_sysbios_family_c64p_Hwi_int5
c37880c0   ti_sysbios_family_c64p_Hwi_int6
c37880e0   ti_sysbios_family_c64p_Hwi_int7
c3788100   ti_sysbios_family_c64p_Hwi_int8
c3788120   ti_sysbios_family_c64p_Hwi_int9
c3788140   ti_sysbios_family_c64p_Hwi_int10
c3788160   ti_sysbios_family_c64p_Hwi_int11
c3788180   ti_sysbios_family_c64p_Hwi_int12
c37881a0   ti_sysbios_family_c64p_Hwi_int13
c37881c0   ti_sysbios_family_c64p_Hwi_int14
c37881e0   ti_sysbios_family_c64p_Hwi_int15
c3788200   __CIOBUF_
c3788320   __c_args__
c3788400   _Ipc_ResetVector
c3788408   Ipc_sr0MemorySetup
ffffffff   __TI_pprof_out_hndl
ffffffff   __TI_prof_data_size
ffffffff   __TI_prof_data_start
ffffffff   __binit__
ffffffff   binit
UNDEFED    __TI_CINIT_Base
UNDEFED    __TI_CINIT_Limit
UNDEFED    __TI_Handler_Table_Base
UNDEFED    __TI_Handler_Table_Limit
UNDEFED    __TI_INITARRAY_Base
UNDEFED    __TI_INITARRAY_Limit

[1409 symbols]


DYNAMIC SYMBOLS: SORTED ALPHABETICALLY BY Name 

address    name
--------   ----
UNDEFED    
c3782200   TSK_idle
c3788400   _Ipc_ResetVector
c3787f20   __TI_STACK_END
00001000   __TI_STACK_SIZE
c3787fa4   __TI_STATIC_BASE
ffffffff   __TI_pprof_out_hndl
ffffffff   __TI_prof_data_size
ffffffff   __TI_prof_data_start
ffffffff   __binit__
c3788320   __c_args__
00000064   _argsize
ffffffff   binit
00000001   xdc_runtime_Startup__EXECFXN__C
00000001   xdc_runtime_Startup__RESETFXN__C

[15 symbols]


IMPORTED and EXPORTED SYMBOLS: SORTED ALPHABETICALLY BY Name 

IMPORTED SYMBOLS

name                           size      Imported from
-----------------------------  --------  -------------

[0 symbols]


EXPORTED SYMBOLS

address    name
--------   ----
c3788400   _Ipc_ResetVector
